                            * = $6600
6600   46 D3      L6600     LSR $D3
6602   C9 FE                CMP #$FE
6604   90 18                BCC L661E
6606   85 07                STA $07
6608   48                   PHA
6609   A9 00                LDA #$00
660B   85 35                STA $35
660D   20 8D 66             JSR L668D
6610   20 00 9B             JSR $9B00
6613   20 54 66             JSR L6654
6616   68                   PLA
6617   4A                   LSR A
6618   B0 01                BCS L661B
661A   60                   RTS
661B   4C 7A 68   L661B     JMP L687A
661E   85 08      L661E     STA $08
6620   C9 01                CMP #$01
6622   D0 04                BNE L6628
6624   18                   CLC
6625   20 80 68             JSR L6880
6628   20 54 66   L6628     JSR L6654
662B   A5 08                LDA $08
662D   D0 EC                BNE L661B
662F   A5 0C      L662F     LDA $0C
6631   18                   CLC
6632   69 1D                ADC #$1D
6634   C5 03                CMP $03
6636   85 03                STA $03
6638   F0 05                BEQ L663F
663A   85 35                STA $35
663C   20 8D 66             JSR L668D
663F   AE 53 10   L663F     LDX $1053
6642   20 5C 66             JSR L665C
6645   AD 54 10             LDA $1054
6648   2A                   ROL A
6649   2A                   ROL A
664A   2A                   ROL A
664B   29 03                AND #$03
664D   AA                   TAX
664E   20 B9 68             JSR L68B9
6651   4C 7A 68             JMP L687A
6654   A6 08      L6654     LDX $08
6656   E8                   INX
6657   86 35                STX $35
6659   4C 8D 66             JMP L668D
665C   E4 04      L665C     CPX $04
665E   F0 1C                BEQ L667C
6660   86 04                STX $04
6662   8A                   TXA
6663   18                   CLC
6664   69 69                ADC #$69
6666   85 35                STA $35
6668   20 8D 66             JSR L668D
666B   A9 20      L666B     LDA #$20
666D   20 AD 67             JSR L67AD
6670   AD AE 67             LDA $67AE
6673   C9 80                CMP #$80
6675   AD AF 67             LDA $67AF
6678   E9 47                SBC #$47
667A   90 EF                BCC L666B
667C   60         L667C     RTS
667D   E4 06      L667D     CPX $06
667F   F0 09                BEQ L668A
6681   86 06                STX $06
6683   86 35                STX $35
6685   48                   PHA
6686   20 8D 66             JSR L668D
6689   68                   PLA
668A   4C 00 93   L668A     JMP $9300
668D   A2 00      L668D     LDX #$00
668F   8E 55 BE             STX $BE55
6692   8E 57 BE             STX $BE57
6695   A9 03                LDA #$03
6697   8D 56 BE             STA $BE56
669A   86 9B                STX $9B
669C   A9 40                LDA #$40
669E   85 9C                STA $9C
66A0   A5 35                LDA $35
66A2   85 9D                STA $9D
66A4   AD D2 6A             LDA $6AD2
66A7   85 9E                STA $9E
66A9   A0 01                LDY #$01
66AB   A5 9D      L66AB     LDA $9D
66AD   05 9E                ORA $9E
66AF   F0 31                BEQ L66E2
66B1   B1 9B                LDA ($9B),Y
66B3   C9 FF                CMP #$FF
66B5   F0 18                BEQ L66CF
66B7   18                   CLC
66B8   A1 9B                LDA ($9B,X)
66BA   6D 55 BE             ADC $BE55
66BD   8D 55 BE             STA $BE55
66C0   B1 9B                LDA ($9B),Y
66C2   6D 56 BE             ADC $BE56
66C5   8D 56 BE             STA $BE56
66C8   8A                   TXA
66C9   6D 57 BE             ADC $BE57
66CC   8D 57 BE             STA $BE57
66CF   E6 9B      L66CF     INC $9B
66D1   E6 9B                INC $9B
66D3   D0 02                BNE L66D7
66D5   E6 9C                INC $9C
66D7   A5 9D      L66D7     LDA $9D
66D9   D0 02                BNE L66DD
66DB   C6 9E                DEC $9E
66DD   C6 9D      L66DD     DEC $9D
66DF   4C AB 66             JMP L66AB
66E2   A1 9B      L66E2     LDA ($9B,X)
66E4   8D 4D BE             STA $BE4D
66E7   B1 9B                LDA ($9B),Y
66E9   8D 4E BE             STA $BE4E
66EC   0D 4D BE             ORA $BE4D
66EF   38                   SEC
66F0   F0 47                BEQ L6739
66F2   B1 9B                LDA ($9B),Y
66F4   C9 FF                CMP #$FF
66F6   D0 08                BNE L6700
66F8   A1 9B                LDA ($9B,X)
66FA   20 B9 67             JSR L67B9
66FD   4C 8D 66             JMP L668D
6700   20 5C 68   L6700     JSR L685C
6703   98                   TYA
6704   48                   PHA
6705   0A                   ASL A
6706   AA                   TAX
6707   BC 8F 67             LDY $678F,X
670A   BD 90 67             LDA $6790,X
670D   8C 4B BE             STY $BE4B
6710   8D 4C BE             STA $BE4C
6713   8C AE 67             STY $67AE
6716   8D AF 67             STA $67AF
6719   68                   PLA
671A   A8                   TAY
671B   C0 04                CPY #$04
671D   90 09                BCC L6728
671F   C0 07                CPY #$07
6721   D0 1C                BNE L673F
6723   AD D3 6A             LDA $6AD3
6726   D0 17                BNE L673F
6728   BC 8F 67   L6728     LDY $678F,X
672B   BD 90 67             LDA $6790,X
672E   8C 4B BE             STY $BE4B
6731   8D 4C BE             STA $BE4C
6734   20 17 69             JSR L6917
6737   B0 6E                BCS L67A7
6739   A9 00      L6739     LDA #$00
673B   8D D2 6A             STA $6AD2
673E   60                   RTS
673F   38         L673F     SEC
6740   BD 97 67             LDA $6797,X
6743   8D D4 6A             STA $6AD4
6746   ED 4D BE             SBC $BE4D
6749   8D 4B BE             STA $BE4B
674C   8D D6 6A             STA $6AD6
674F   BD 98 67             LDA $6798,X
6752   8D D5 6A             STA $6AD5
6755   ED 4E BE             SBC $BE4E
6758   8D 4C BE             STA $BE4C
675B   8D D7 6A             STA $6AD7
675E   20 17 69             JSR L6917
6761   B0 44                BCS L67A7
6763   AE D6 6A             LDX $6AD6
6766   AC D7 6A             LDY $6AD7
6769   20 99 82             JSR L8299
676C   20 B8 82   L676C     JSR L82B8
676F   20 AD 67             JSR L67AD
6772   AD 3C 83             LDA $833C
6775   CD D4 6A             CMP $6AD4
6778   AD 3D 83             LDA $833D
677B   ED D5 6A             SBC $6AD5
677E   90 EC                BCC L676C
6780   20 B8 82             JSR L82B8
6783   20 AD 67             JSR L67AD
6786   20 B8 82             JSR L82B8
6789   20 AD 67             JSR L67AD
678C   18                   CLC
678D   90 AA                BCC L6739
678F   00                   BRK
6790   9B                   ???                ;10011011
6791   00                   BRK
6792   93                   ???                ;10010011
6793   00                   BRK
6794   A8                   TAY
6795   00                   BRK
6796   AD 40 10             LDA $1040
6799   80                   ???                ;10000000
679A   47                   ???                ;01000111 'G'
679B   00                   BRK
679C   43                   ???                ;01000011 'C'
679D   00                   BRK
679E   08                   PHP
679F   80                   ???                ;10000000
67A0   1F                   ???                ;00011111
67A1   00                   BRK
67A2   66 80                ROR $80
67A4   47                   ???                ;01000111 'G'
67A5   40                   RTI
67A6   10 20                BPL L67C8
67A8   FB                   ???                ;11111011
67A9   67                   ???                ;01100111 'g'
67AA   4C 8D 66             JMP L668D
67AD   8D FF FF   L67AD     STA $FFFF
67B0   EE AE 67             INC $67AE
67B3   D0 03                BNE L67B8
67B5   EE AF 67             INC $67AF
67B8   60         L67B8     RTS

67B9   49 FF      L67B9     EOR #$FF
67BB   8D D8 6A             STA $6AD8
67BE   20 C7 67   L67BE     JSR L67C7
67C1   20 FB 67             JSR L67FB
67C4   4C BE 67             JMP L67BE

67C7   A2 00      L67C7     LDX #$00
67C9   A0 00                LDY #$00
67CB   20 70 6A             JSR L6A70          ; ### ###               ; lda $6ad8
67CE   B0 2A                BCS L67FA          ;                       ; sta $disk id
67D0   AD FF BB             LDA $BBFF          ; test disk id          ; nop, nop
67D3   CD D8 6A             CMP $6AD8                                  ; lda #$00; nop
67D6   D0 22                BNE L67FA          ; branch if not equal
67D8   A0 00                LDY #$00
67DA   8C 55 BE             STY $BE55
67DD   8C 56 BE             STY $BE56
67E0   8C 57 BE             STY $BE57
67E3   8C 4D BE             STY $BE4D
67E6   A9 03                LDA #$03
67E8   8D 4E BE             STA $BE4E
67EB   8C 4B BE             STY $BE4B
67EE   A9 40                LDA #$40
67F0   8D 4C BE             STA $BE4C
67F3   20 17 69             JSR L6917
67F6   B0 02                BCS L67FA
67F8   68                   PLA
67F9   68                   PLA
67FA   60         L67FA     RTS

67FB   20 07 74   L67FB     JSR L7407

67FE   F4                   ???                ;11110100
67FF   18                   CLC
6800   61 48                ADC ($48,X)
6802   C1 53                CMP ($53,X)
6804   A4 68                LDY $68
6806   CC 37 7D             CPY $7D37
6809   22                   ???                ;00100010 '"'
680A   10 00                BPL L680C

680C   AD D8 6A   L680C     LDA $6AD8
680F   0A                   ASL A
6810   AA                   TAX
6811   BD 21 68             LDA $6821,X
6814   BC 22 68             LDY $6822,X
6817   AA                   TAX
6818   20 19 74             JSR L7419
681B   20 0D 6F             JSR L6F0D
681E   4C 73 86             JMP L8673
6821   29 68                AND #$68
6823   31 68                AND ($68),Y
6825   3C                   ???                ;00111100 '<'
6826   68                   PLA
6827   4C 68 F0             JMP $F068
682A   DE F9 84             DEC $84F9,X
682D   AA                   TAX
682E   92                   ???                ;10010010
682F   F0 00                BEQ L6831
6831   F1 12      L6831     SBC ($12),Y
6833   28                   PLP
6834   88                   DEY
6835   93                   ???                ;10010011
6836   34                   ???                ;00110100 '4'
6837   42                   ???                ;01000010 'B'
6838   55 49                EOR $49,X
683A   78                   SEI
683B   00                   BRK
683C   F1 68                SBC ($68),Y
683E   E4 19                CPX $19
6840   EE 0F 8A             INC $8A0F
6843   A9 2C                LDA #$2C
6845   3E 92 8A             ROL $8A92,X
6848   60                   RTS
6849   F8                   SED
684A   58                   CLI
684B   00                   BRK
684C   F1 68                SBC ($68),Y
684E   E4 19                CPX $19
6850   EE 0F 8A             INC $8A0F
6853   A9 2C                LDA #$2C
6855   3E 92 8A             ROL $8A92,X
6858   60                   RTS
6859   F8                   SED
685A   78                   SEI
685B   00                   BRK
685C   A0 07      L685C     LDY #$07
685E   AD D2 6A             LDA $6AD2
6861   D0 0A                BNE L686D
6863   A5 35                LDA $35
6865   D9 6E 68   L6865     CMP $686E,Y
6868   B0 03                BCS L686D
686A   88                   DEY
686B   10 F8                BPL L6865
686D   60         L686D     RTS
686E   00                   BRK
686F   04                   ???                ;00000100
6870   0D 17 1D             ORA $1D17
6873   64                   ???                ;01100100 'd'
6874   69 92                ADC #$92
6876   18                   CLC
6877   20 80 68   L6877     JSR L6880
687A   A2 FF      L687A     LDX #$FF
687C   9A                   TXS
687D   4C 00 9B             JMP $9B00
6880   08         L6880     PHP
6881   A5 35                LDA $35
6883   18                   CLC
6884   69 27                ADC #$27
6886   C5 03                CMP $03
6888   85 03                STA $03
688A   F0 05                BEQ L6891
688C   85 35                STA $35
688E   20 8D 66             JSR L668D
6891   AD 50 10   L6891     LDA $1050
6894   2A                   ROL A
6895   2A                   ROL A
6896   2A                   ROL A
6897   29 03                AND #$03
6899   18                   CLC
689A   69 03                ADC #$03
689C   AA                   TAX
689D   20 B9 68             JSR L68B9
68A0   AE 5D 10             LDX $105D
68A3   20 5C 66             JSR L665C
68A6   28                   PLP
68A7   90 0F                BCC L68B8
68A9   A5 09                LDA $09
68AB   ED 61 10             SBC $1061
68AE   85 09                STA $09
68B0   38                   SEC
68B1   A5 0A                LDA $0A
68B3   ED 60 10             SBC $1060
68B6   85 0A                STA $0A
68B8   60         L68B8     RTS
68B9   E4 05      L68B9     CPX $05
68BB   F0 0B                BEQ L68C8
68BD   86 05                STX $05
68BF   8A                   TXA
68C0   18                   CLC
68C1   69 64                ADC #$64
68C3   85 35                STA $35
68C5   4C 8D 66             JMP L668D
68C8   60         L68C8     RTS
68C9   E4 02      L68C9     CPX $02
68CB   F0 FB                BEQ L68C8
68CD   86 02                STX $02
68CF   E0 FE                CPX #$FE
68D1   B0 41                BCS L6914
68D3   8A                   TXA
68D4   0A                   ASL A
68D5   18                   CLC
68D6   69 92                ADC #$92
68D8   85 35                STA $35
68DA   90 03                BCC L68DF
68DC   EE D2 6A             INC $6AD2
68DF   AD D2 6A   L68DF     LDA $6AD2
68E2   48                   PHA
68E3   A9 00                LDA #$00
68E5   8D D3 6A             STA $6AD3
68E8   20 8D 66             JSR L668D
68EB   B0 21                BCS L690E
68ED   20 32 82             JSR L8232
68F0   CE D3 6A             DEC $6AD3
68F3   A2 0F                LDX #$0F
68F5   A9 00                LDA #$00
68F7   9D 00 08   L68F7     STA $0800,X
68FA   CA                   DEX
68FB   10 FA                BPL L68F7
68FD   68                   PLA
68FE   8D D2 6A             STA $6AD2
6901   E6 35                INC $35
6903   D0 03                BNE L6908
6905   EE D2 6A             INC $6AD2
6908   20 8D 66   L6908     JSR L668D
690B   4C 52 83             JMP L8352
690E   68         L690E     PLA
690F   A9 00                LDA #$00
6911   8D D2 6A             STA $6AD2
6914   4C CA 81   L6914     JMP L81CA
6917   20 40 6A   L6917     JSR L6A40
691A   AD 57 BE             LDA $BE57
691D   4A                   LSR A
691E   85 47                STA $47
6920   AD 56 BE             LDA $BE56
6923   6A                   ROR A
6924   85 46                STA $46
6926   E6 46                INC $46
6928   D0 02                BNE L692C
692A   E6 47                INC $47
692C   20 A4 6A   L692C     JSR L6AA4
692F   B0 76                BCS L69A7
6931   AD 4B BE             LDA $BE4B
6934   85 44                STA $44
6936   AD 4C BE             LDA $BE4C
6939   85 45                STA $45
693B   38                   SEC
693C   A9 00                LDA #$00
693E   ED 55 BE             SBC $BE55
6941   85 30                STA $30
6943   AD 56 BE             LDA $BE56
6946   29 01                AND #$01
6948   85 31                STA $31
694A   A9 02                LDA #$02
694C   E5 31                SBC $31
694E   85 31                STA $31
6950   A5 30                LDA $30
6952   CD 4D BE             CMP $BE4D
6955   A5 31                LDA $31
6957   ED 4E BE             SBC $BE4E
695A   90 03                BCC L695F
695C   4C FC 69             JMP L69FC
695F   AE 55 BE   L695F     LDX $BE55
6962   A0 00                LDY #$00
6964   AD 56 BE             LDA $BE56
6967   4A                   LSR A
6968   B0 0C                BCS L6976
696A   BD 00 BA   L696A     LDA $BA00,X
696D   91 44                STA ($44),Y
696F   C8                   INY
6970   E8                   INX
6971   D0 F7                BNE L696A
6973   20 5A 6A             JSR L6A5A
6976   BD 00 BB   L6976     LDA $BB00,X
6979   91 44                STA ($44),Y
697B   C8                   INY
697C   E8                   INX
697D   D0 F7                BNE L6976
697F   20 5A 6A             JSR L6A5A
6982   38                   SEC
6983   AD 4D BE             LDA $BE4D
6986   E5 30                SBC $30
6988   8D 4D BE             STA $BE4D
698B   AD 4E BE             LDA $BE4E
698E   E5 31                SBC $31
6990   8D 4E BE             STA $BE4E
6993   AD 4B BE   L6993     LDA $BE4B
6996   85 44                STA $44
6998   AD 4C BE             LDA $BE4C
699B   85 45                STA $45
699D   AD 4E BE             LDA $BE4E
69A0   C9 02                CMP #$02
69A2   90 13                BCC L69B7
69A4   20 AC 6A             JSR L6AAC
69A7   B0 50      L69A7     BCS L69F9
69A9   EE 4C BE             INC $BE4C
69AC   EE 4C BE             INC $BE4C
69AF   CE 4E BE             DEC $BE4E
69B2   CE 4E BE             DEC $BE4E
69B5   D0 DC                BNE L6993
69B7   20 A4 6A   L69B7     JSR L6AA4
69BA   AD 4B BE             LDA $BE4B
69BD   85 44                STA $44
69BF   AD 4C BE             LDA $BE4C
69C2   85 45                STA $45
69C4   A0 00                LDY #$00
69C6   AD 4E BE             LDA $BE4E
69C9   F0 1D                BEQ L69E8
69CB   B9 00 BA   L69CB     LDA $BA00,Y
69CE   91 44                STA ($44),Y
69D0   C8                   INY
69D1   D0 F8                BNE L69CB
69D3   E6 45                INC $45
69D5   AC 4D BE             LDY $BE4D
69D8   F0 0B                BEQ L69E5
69DA   88                   DEY
69DB   B9 00 BB   L69DB     LDA $BB00,Y
69DE   91 44                STA ($44),Y
69E0   88                   DEY
69E1   C0 FF                CPY #$FF
69E3   D0 F6                BNE L69DB
69E5   18         L69E5     CLC
69E6   90 11                BCC L69F9
69E8   AC 4D BE   L69E8     LDY $BE4D
69EB   F0 F8                BEQ L69E5
69ED   88                   DEY
69EE   B9 00 BA   L69EE     LDA $BA00,Y
69F1   91 44                STA ($44),Y
69F3   88                   DEY
69F4   C0 FF                CPY #$FF
69F6   D0 F6                BNE L69EE
69F8   18                   CLC
69F9   4C 4B 6A   L69F9     JMP L6A4B
69FC   18         L69FC     CLC
69FD   AD 55 BE             LDA $BE55
6A00   6D 4D BE             ADC $BE4D
6A03   85 32                STA $32
6A05   AD 56 BE             LDA $BE56
6A08   29 01                AND #$01
6A0A   6D 4E BE             ADC $BE4E
6A0D   69 BA                ADC #$BA
6A0F   85 33                STA $33
6A11   AD 55 BE             LDA $BE55
6A14   85 34                STA $34
6A16   AD 56 BE             LDA $BE56
6A19   29 01                AND #$01
6A1B   18                   CLC
6A1C   69 BA                ADC #$BA
6A1E   85 35                STA $35

6A20   A0 00                LDY #$00
6A22   A2 00                LDX #$00
6A24   A1 34      L6A24     LDA ($34,X)
6A26   91 44                STA ($44),Y
6A28   C8                   INY
6A29   D0 02                BNE L6A2D
6A2B   E6 45                INC $45
6A2D   E6 34      L6A2D     INC $34
6A2F   D0 02                BNE L6A33
6A31   E6 35                INC $35
6A33   A5 34      L6A33     LDA $34
6A35   C5 32                CMP $32
6A37   A5 35                LDA $35
6A39   E5 33                SBC $33
6A3B   90 E7                BCC L6A24
6A3D   18                   CLC
6A3E   90 B9                BCC L69F9

; -- backup zero page ----------------------------------------------------
6A40   A2 1F      L6A40     LDX #$1F
6A42   B5 30      L6A42     LDA $30,X
6A44   9D E0 02             STA $02E0,X
6A47   CA                   DEX
6A48   10 F8                BPL L6A42
6A4A   60                   RTS

; -- restore zero page ---------------------------------------------------
6A4B   A2 1F      L6A4B     LDX #$1F
6A4D   08                   PHP
6A4E   48                   PHA
6A4F   BD E0 02   L6A4F     LDA $02E0,X
6A52   95 30                STA $30,X
6A54   CA                   DEX
6A55   10 F8                BPL L6A4F
6A57   68                   PLA
6A58   28                   PLP
6A59   60                   RTS

; -- ??? -----------------------------------------------------------------
6A5A   88         L6A5A     DEY
6A5B   98                   TYA
6A5C   38                   SEC
6A5D   65 44                ADC $44
6A5F   85 44                STA $44
6A61   8D 4B BE             STA $BE4B
6A64   A9 00                LDA #$00
6A66   65 45                ADC $45
6A68   85 45                STA $45
6A6A   8D 4C BE             STA $BE4C
6A6D   A0 00                LDY #$00
6A6F   60                   RTS

; -- ??? -----------------------------------------------------------------
6A70   8A         L6A70     TXA        ; parameter x: low sector number
6A71   48                   PHA
6A72   98                   TYA        ; parameter y: high sector number
6A73   48                   PHA
6A74   20 40 6A             JSR L6A40  ; backup zero page
6A77   68                   PLA
6A78   85 47                STA $47
6A7A   68                   PLA
6A7B   85 46                STA $46
6A7D   20 A4 6A             JSR L6AA4
6A80   4C 4B 6A             JMP L6A4B

; -- save data -----------------------------------------------------------
6A83   8A                   TXA
6A84   48                   PHA
6A85   98                   TYA
6A86   48                   PHA
6A87   20 40 6A             JSR L6A40  ; backup zero page
6A8A   68                   PLA
6A8B   85 47                STA $47
6A8D   68                   PLA
6A8E   85 46                STA $46
6A90   A9 02                LDA #$02
6A92   8D AD 6A             STA $6AAD  ; set mode 2: save
6A95   20 A4 6A             JSR L6AA4  ; save data
6A98   08                   PHP
6A99   48                   PHA
6A9A   A9 01                LDA #$01
6A9C   8D AD 6A             STA $6AAD  ; restore mode
6A9F   68                   PLA
6AA0   28                   PLP
6AA1   4C 4B 6A             JMP L6A4B  ; restore zero page

; -- load data -----------------------------------------------------------
6AA4   A9 00      L6AA4     LDA #$00   ; buffer to $ba00
6AA6   85 44                STA $44
6AA8   A9 BA                LDA #$BA
6AAA   85 45                STA $45
6AAC   A9 01      L6AAC     LDA #$01   ; mode load
6AAE   85 42                STA $42
6AB0   20 7A BE             JSR $BE7A  ; load sector
6AB3   E6 46                INC $46    ; set next sector
6AB5   D0 02                BNE L6AB9
6AB7   E6 47                INC $47
6AB9   60         L6AB9     RTS

; -- ??? -----------------------------------------------------------------
6ABA   48         L6ABA     PHA
6ABB   20 E2 91             JSR L91E2
6ABE   85 37                STA $37
6AC0   A5 12                LDA $12
6AC2   85 36                STA $36
6AC4   A0 00                LDY #$00
6AC6   B1 36                LDA ($36),Y
6AC8   D0 02                BNE L6ACC
6ACA   68                   PLA
6ACB   60                   RTS
6ACC   A2 04      L6ACC     LDX #$04
6ACE   68                   PLA
6ACF   4C 7D 66             JMP L667D

6AD2   00                   BRK
6AD3   00                   BRK
6AD4   00                   BRK
6AD5   00                   BRK
6AD6   00                   BRK
6AD7   00                   BRK
6AD8   00                   BRK  ; variable: disk id

; -- ??? -----------------------------------------------------------------
6AD9   A2 9B                LDX #$9B
6ADB   A5 2F                LDA $2F
6ADD   C9 FF                CMP #$FF
6ADF   F0 02                BEQ L6AE3
6AE1   A2 80                LDX #$80
6AE3   8E 04 6B   L6AE3     STX $6B04
6AE6   A2 7B                LDX #$7B
6AE8   A5 08                LDA $08
6AEA   D0 07                BNE L6AF3
6AEC   AD 52 10             LDA $1052
6AEF   4A                   LSR A
6AF0   B0 01                BCS L6AF3
6AF2   CA                   DEX
6AF3   8E F9 6A   L6AF3     STX $6AF9
6AF6   20 0F 8B             JSR L8B0F
6AF9   7B                   ???                ;01111011 '{'
6AFA   20 02 4B             JSR $4B02
6AFD   6B                   ???                ;01101011 'k'
6AFE   D0 4E                BNE L6B4E
6B00   6B                   ???                ;01101011 'k'
6B01   01 59                ORA ($59,X)
6B03   6B                   ???                ;01101011 'k'
6B04   9B                   ???                ;10011011
6B05   61 6B                ADC ($6B,X)
6B07   C3                   ???                ;11000011
6B08   69 6B                ADC #$6B
6B0A   C2                   ???                ;11000010
6B0B   8E 6B D5             STX $D56B
6B0E   87                   ???                ;10000111
6B0F   6D D6 EE             ADC $EED6
6B12   6C 93 EB             JMP ($EB93)
6B15   6C C4 F6             JMP ($F6C4)
6B18   6C 00 1C             JMP ($1C00)
6B1B   6B                   ???                ;01101011 'k'
6B1C   48                   PHA
6B1D   A2 00                LDX #$00
6B1F   AD 4E 03             LDA $034E
6B22   29 01                AND #$01
6B24   F0 02                BEQ L6B28
6B26   A2 07                LDX #$07
6B28   A0 00      L6B28     LDY #$00
6B2A   68                   PLA
6B2B   DD 3D 6B   L6B2B     CMP $6B3D,X
6B2E   F0 08                BEQ L6B38
6B30   E8                   INX
6B31   C8                   INY
6B32   C0 07                CPY #$07
6B34   90 F5                BCC L6B2B
6B36   18                   CLC
6B37   60                   RTS
6B38   98         L6B38     TYA
6B39   09 80                ORA #$80
6B3B   D0 1F                BNE L6B5C
6B3D   A1 C0                LDA ($C0,X)
6B3F   A3                   ???                ;10100011
6B40   A4 A5                LDY $A5
6B42   DE A6 A1             DEC $A1A6,X
6B45   A2 A3                LDX #$A3
6B47   A4 A5                LDY $A5
6B49   A6 A7      L6B49     LDX $A7
6B4B   A9 00                LDA #$00
6B4D   2C A9 01             BIT $01A9
6B50   85 61                STA $61
6B52   A9 FE                LDA #$FE
6B54   20 00 66             JSR L6600
6B57   38                   SEC
6B58   60                   RTS
6B59   38                   SEC
6B5A   E9 B1                SBC #$B1
6B5C   20 BA 6A   L6B5C     JSR L6ABA
6B5F   38                   SEC
6B60   60                   RTS
6B61   20 73 86             JSR L8673
6B64   20 20 91             JSR L9120
6B67   38         L6B67     SEC
6B68   60                   RTS
6B69   20 5D 6E             JSR L6E5D
6B6C   B0 F9                BCS L6B67
6B6E   C9 04      L6B6E     CMP #$04
6B70   B0 13                BCS L6B85
6B72   48                   PHA
6B73   20 07 74             JSR L7407
6B76   F1 05                SBC ($05),Y
6B78   29 84                AND #$84
6B7A   53                   ???                ;01010011 'S'
6B7B   08                   PHP
6B7C   00                   BRK
6B7D   68                   PLA
6B7E   20 AB FA             JSR $FAAB
6B81   B0 E4                BCS L6B67
6B83   85 5D                STA $5D
6B85   20 73 86   L6B85     JSR L8673
6B88   20 81 E9             JSR $E981
6B8B   4C 0D 6F             JMP L6F0D
6B8E   20 07 74             JSR L7407
6B91   F5 92                SBC $92,X
6B93   F0 D9                BEQ L6B6E
6B95   4C 60 60             JMP $6060
6B98   C1 5F                CMP ($5F,X)
6B9A   FC                   ???                ;11111100
6B9B   00                   BRK
6B9C   20 37 8F             JSR L8F37
6B9F   B0 C6                BCS L6B67
6BA1   84 36                STY $36
6BA3   85 37                STA $37
6BA5   A0 2D                LDY #$2D
6BA7   B1 36                LDA ($36),Y
6BA9   29 1C                AND #$1C
6BAB   D0 BA                BNE L6B67
6BAD   8A                   TXA
6BAE   4A                   LSR A
6BAF   8D EA 6C             STA $6CEA
6BB2   A0 29                LDY #$29
6BB4   B1 36                LDA ($36),Y
6BB6   C9 06                CMP #$06
6BB8   F0 0F                BEQ L6BC9
6BBA   20 07 74             JSR L7407
6BBD   F3                   ???                ;11110011
6BBE   9F                   ???                ;10011111
6BBF   30 88                BMI L6B49
6BC1   23                   ???                ;00100011 '#'
6BC2   14                   ???                ;00010100
6BC3   4B                   ???                ;01001011 'K'
6BC4   C0 00                CPY #$00
6BC6   4C 0D 6F   L6BC6     JMP L6F0D
6BC9   AE EA 6C   L6BC9     LDX $6CEA
6BCC   20 BB 6F             JSR L6FBB
6BCF   90 1A                BCC L6BEB
6BD1   20 07 74             JSR L7407
6BD4   F5 DF                SBC $DF,X
6BD6   40                   RTI
6BD7   8A                   TXA
6BD8   26 76                ROL $76
6BDA   A6 1A                LDX $1A
6BDC   49 4E                EOR #$4E
6BDE   40                   RTI
6BDF   44                   ???                ;01000100 'D'
6BE0   E0 A9                CPX #$A9
6BE2   D2                   ???                ;11010010
6BE3   9C                   ???                ;10011100
6BE4   68                   PLA
6BE5   D3                   ???                ;11010011
6BE6   3A                   ???                ;00111010 ':'
6BE7   7C                   ???                ;01111100 '|'
6BE8   00                   BRK
6BE9   90 DB                BCC L6BC6
6BEB   AE EA 6C   L6BEB     LDX $6CEA
6BEE   A9 05                LDA #$05
6BF0   20 83 6F             JSR L6F83
6BF3   90 1D                BCC L6C12
6BF5   A0 64                LDY #$64
6BF7   B1 36                LDA ($36),Y
6BF9   D0 13                BNE L6C0E
6BFB   20 07 74             JSR L7407
6BFE   F5 DF                SBC $DF,X
6C00   48                   PHA
6C01   86 69                STX $69
6C03   8B                   ???                ;10001011
6C04   C5 30                CMP $30
6C06   AA                   TAX
6C07   41 2C                EOR ($2C,X)
6C09   6F                   ???                ;01101111 'o'
6C0A   C0 00                CPY #$00
6C0C   90 B8                BCC L6BC6
6C0E   E9 01      L6C0E     SBC #$01
6C10   91 36                STA ($36),Y
6C12   18         L6C12     CLC
6C13   24 38                BIT $38
6C15   6E E9 6C             ROR $6CE9
6C18   20 73 86             JSR L8673
6C1B   A9 31                LDA #$31
6C1D   8D 2F 6C             STA $6C2F
6C20   A2 00                LDX #$00
6C22   8E 5A 6C             STX $6C5A
6C25   A0 65      L6C25     LDY #$65
6C27   B1 36                LDA ($36),Y
6C29   3D 58 CD             AND $CD58,X
6C2C   F0 29                BEQ L6C57
6C2E   A9 31                LDA #$31
6C30   20 8E 84             JSR L848E
6C33   A9 A9                LDA #$A9
6C35   20 8E 84             JSR L848E
6C38   20 89 84             JSR L8489
6C3B   8A                   TXA
6C3C   48                   PHA
6C3D   0A                   ASL A
6C3E   AA                   TAX
6C3F   BD 04 DA             LDA $DA04,X
6C42   BC 05 DA             LDY $DA05,X
6C45   AA                   TAX
6C46   20 19 74             JSR L7419
6C49   20 8C 84             JSR L848C
6C4C   68                   PLA
6C4D   AA                   TAX
6C4E   AD 2F 6C             LDA $6C2F
6C51   09 80                ORA #$80
6C53   EE 2F 6C             INC $6C2F
6C56   2C A9 80             BIT $80A9
6C59   A0 00                LDY #$00
6C5B   99 8B 6C             STA $6C8B,Y
6C5E   C8                   INY
6C5F   C8                   INY
6C60   C8                   INY
6C61   8C 5A 6C             STY $6C5A
6C64   E8                   INX
6C65   E0 08                CPX #$08
6C67   90 BC                BCC L6C25
6C69   A9 80                LDA #$80
6C6B   2C E9 6C             BIT $6CE9
6C6E   30 13                BMI L6C83
6C70   20 0A 74             JSR L740A
6C73   FD 53 7C             SBC $7C53,X
6C76   03                   ???                ;00000011
6C77   06 0A                ASL $0A
6C79   EA                   NOP
6C7A   72                   ???                ;01110010 'r'
6C7B   02                   ???                ;00000010
6C7C   20 C9 EE             JSR $EEC9
6C7F   40                   RTI
6C80   00                   BRK
6C81   A9 D3                LDA #$D3
6C83   8D A3 6C   L6C83     STA $6CA3
6C86   20 0F 8B             JSR L8B0F
6C89   42                   ???                ;01000010 'B'
6C8A   A0 B1                LDY #$B1
6C8C   AA                   TAX
6C8D   6C B2 AD             JMP ($ADB2)
6C90   6C B3 B0             JMP ($B0B3)
6C93   6C B4 B3             JMP ($B3B4)
6C96   6C B5 B6             JMP ($B6B5)
6C99   6C B6 B9             JMP ($B9B6)
6C9C   6C B7 BC             JMP ($BCB7)
6C9F   6C B8 BF             JMP ($BFB8)
6CA2   6C D3 C8             JMP ($C8D3)
6CA5   6C 9B D0             JMP ($D09B)
6CA8   6C FF A9             JMP ($A9FF)
6CAB   00                   BRK
6CAC   2C A9 01             BIT $01A9
6CAF   2C A9 02             BIT $02A9
6CB2   2C A9 03             BIT $03A9
6CB5   2C A9 04             BIT $04A9
6CB8   2C A9 05             BIT $05A9
6CBB   2C A9 06             BIT $06A9
6CBE   2C A9 07             BIT $07A9
6CC1   2C E9 6C             BIT $6CE9
6CC4   10 0C                BPL L6CD2
6CC6   18                   CLC
6CC7   60                   RTS
6CC8   20 73 86   L6CC8     JSR L8673
6CCB   A5 99                LDA $99
6CCD   20 2A 92             JSR L922A
6CD0   38                   SEC
6CD1   60                   RTS
6CD2   48         L6CD2     PHA
6CD3   20 C8 6C             JSR L6CC8
6CD6   68         L6CD6     PLA
6CD7   85 9A                STA $9A
6CD9   AD EA 6C             LDA $6CEA
6CDC   85 99                STA $99
6CDE   AA                   TAX
6CDF   A5 9A                LDA $9A
6CE1   20 19 92             JSR L9219
6CE4   20 7F 92             JSR L927F
6CE7   38                   SEC
6CE8   60                   RTS
6CE9   00                   BRK
6CEA   00                   BRK
6CEB   A9 40                LDA #$40
6CED   2C A9 80             BIT $80A9
6CF0   45 33                EOR $33
6CF2   85 33                STA $33
6CF4   38                   SEC
6CF5   60                   RTS
6CF6   20 07 74             JSR L7407
6CF9   F5 92                SBC $92,X
6CFB   F0 D9                BEQ L6CD6
6CFD   4C 60 6E             JMP L6E60
6D00   FA                   ???                ;11111010
6D01   04                   ???                ;00000100
6D02   B1 7C                LDA ($7C),Y
6D04   3F                   ???                ;00111111 '?'
6D05   C0 00                CPY #$00
6D07   20 0F 8B             JSR L8B0F
6D0A   52                   ???                ;01010010 'R'
6D0B   A0 01                LDY #$01
6D0D   13                   ???                ;00010011
6D0E   6D 9B 57             ADC $579B
6D11   6B                   ???                ;01101011 'k'
6D12   FF                   ???                ;11111111
6D13   38                   SEC
6D14   E9 B1                SBC #$B1
6D16   20 E2 91             JSR L91E2
6D19   A0 29                LDY #$29
6D1B   B1 12                LDA ($12),Y
6D1D   C9 0D                CMP #$0D
6D1F   B0 1A                BCS L6D3B
6D21   20 07 74             JSR L7407
6D24   F5 DF                SBC $DF,X
6D26   40                   RTI
6D27   90 4E                BCC L6D77
6D29   D4                   ???                ;11010100
6D2A   C2                   ???                ;11000010
6D2B   58                   CLI
6D2C   BE 01 10             LDX $1001,Y
6D2F   60                   RTS
6D30   28                   PLP
6D31   CE E1 69             DEC $69E1
6D34   9A                   TXS
6D35   33                   ???                ;00110011 '3'
6D36   47                   ???                ;01000111 'G'
6D37   00                   BRK
6D38   4C 0D 6F             JMP L6F0D
6D3B   8A         L6D3B     TXA
6D3C   20 44 6D             JSR L6D44
6D3F   20 81 FB             JSR $FB81
6D42   38                   SEC
6D43   60                   RTS
6D44   48         L6D44     PHA
6D45   4A                   LSR A
6D46   C5 99                CMP $99
6D48   90 0A                BCC L6D54
6D4A   F0 02                BEQ L6D4E
6D4C   B0 08                BCS L6D56
6D4E   20 2A 92   L6D4E     JSR L922A
6D51   4C 56 6D             JMP L6D56
6D54   C6 99      L6D54     DEC $99
6D56   68         L6D56     PLA
6D57   C9 0C                CMP #$0C
6D59   B0 1C                BCS L6D77
6D5B   AA                   TAX
6D5C   20 E4 91   L6D5C     JSR L91E4
6D5F   85 45                STA $45
6D61   A5 12                LDA $12
6D63   85 44                STA $44
6D65   E8                   INX
6D66   E8                   INX
6D67   20 E4 91   L6D67     JSR L91E4
6D6A   A0 77                LDY #$77
6D6C   B1 12      L6D6C     LDA ($12),Y
6D6E   91 44                STA ($44),Y
6D70   88                   DEY
6D71   10 F9                BPL L6D6C
6D73   E0 0C                CPX #$0C
6D75   90 E5                BCC L6D5C
6D77   A2 0C      L6D77     LDX #$0C
6D79   20 E4 91             JSR L91E4
6D7C   A0 77                LDY #$77
6D7E   A9 00                LDA #$00
6D80   91 12      L6D80     STA ($12),Y
6D82   88                   DEY
6D83   10 FB                BPL L6D80
6D85   38                   SEC
6D86   60                   RTS
6D87   20 07 74             JSR L7407
6D8A   F5 92                SBC $92,X
6D8C   F0 D9                BEQ L6D67
6D8E   4C 60 69             JMP L6960
6D91   23                   ???                ;00100011 '#'
6D92   04                   ???                ;00000100
6D93   4E 0A A6             LSR $A60A
6D96   66 FF                ROR $FF
6D98   80                   ???                ;10000000
6D99   00                   BRK
6D9A   20 0F 8B             JSR L8B0F
6D9D   52                   ???                ;01010010 'R'
6D9E   A0 01                LDY #$01
6DA0   A6 6D                LDX $6D
6DA2   9B                   ???                ;10011011
6DA3   57                   ???                ;01010111 'W'
6DA4   6B                   ???                ;01101011 'k'
6DA5   FF                   ???                ;11111111
6DA6   38                   SEC
6DA7   E9 B1                SBC #$B1
6DA9   85 5C                STA $5C
6DAB   20 E2 91             JSR L91E2
6DAE   85 37                STA $37
6DB0   A5 12                LDA $12
6DB2   85 36                STA $36
6DB4   A0 2D                LDY #$2D
6DB6   B1 36                LDA ($36),Y
6DB8   29 1C                AND #$1C
6DBA   D0 4D                BNE L6E09
6DBC   20 07 74             JSR L7407
6DBF   F5 92                SBC $92,X
6DC1   A2 24                LDX #$24
6DC3   2A                   ROL A
6DC4   99 9B FE             STA $FE9B,Y
6DC7   00                   BRK
6DC8   A9 00                LDA #$00
6DCA   20 6F 87             JSR L876F
6DCD   B0 3A                BCS L6E09
6DCF   AA                   TAX
6DD0   BC 73 E9             LDY $E973,X
6DD3   84 D0                STY $D0
6DD5   B1 36                LDA ($36),Y
6DD7   8D 1E 02             STA $021E
6DDA   C8                   INY
6DDB   B1 36                LDA ($36),Y
6DDD   20 19 6E             JSR L6E19
6DE0   B0 29                BCS L6E0B
6DE2   C9 04                CMP #$04
6DE4   B0 12                BCS L6DF8
6DE6   48                   PHA
6DE7   20 07 74             JSR L7407
6DEA   F5 24                SBC $24,X
6DEC   60                   RTS
6DED   BD C1 00             LDA $00C1,X
6DF0   68                   PLA
6DF1   20 AB FA             JSR $FAAB
6DF4   85 5D                STA $5D
6DF6   B0 11                BCS L6E09
6DF8   20 73 86   L6DF8     JSR L8673
6DFB   A4 D0                LDY $D0
6DFD   20 CA 70             JSR L70CA
6E00   20 7F E9             JSR $E97F
6E03   20 1E 71             JSR L711E
6E06   4C 0D 6F             JMP L6F0D
6E09   38         L6E09     SEC
6E0A   60                   RTS
6E0B   20 07 74   L6E0B     JSR L7407
6E0E   F4                   ???                ;11110100
6E0F   1F                   ???                ;00011111
6E10   63                   ???                ;01100011 'c'
6E11   45 86                EOR $86
6E13   94 B0                STY $B0,X
6E15   00                   BRK
6E16   4C 0D 6F             JMP L6F0D
6E19   85 53      L6E19     STA $53
6E1B   AA                   TAX
6E1C   88                   DEY
6E1D   B1 36                LDA ($36),Y
6E1F   29 03                AND #$03
6E21   C9 02                CMP #$02
6E23   F0 36                BEQ L6E5B
6E25   BD 73 E8             LDA $E873,X
6E28   C9 FF                CMP #$FF
6E2A   F0 2F                BEQ L6E5B
6E2C   85 58                STA $58
6E2E   C8                   INY
6E2F   C8                   INY
6E30   B1 36                LDA ($36),Y
6E32   88                   DEY
6E33   88                   DEY
6E34   C9 00                CMP #$00
6E36   F0 23                BEQ L6E5B
6E38   BD 73 E5             LDA $E573,X
6E3B   29 0F                AND #$0F
6E3D   C9 0C                CMP #$0C
6E3F   D0 11                BNE L6E52
6E41   8A                   TXA
6E42   48         L6E42     PHA
6E43   98                   TYA
6E44   48                   PHA
6E45   A6 5C                LDX $5C
6E47   A9 0B                LDA #$0B
6E49   20 F9 78             JSR L78F9
6E4C   68                   PLA
6E4D   A8                   TAY
6E4E   68                   PLA
6E4F   AA                   TAX
6E50   B0 09                BCS L6E5B
6E52   A6 58      L6E52     LDX $58
6E54   BD 2A ED             LDA $ED2A,X
6E57   29 07                AND #$07
6E59   18                   CLC
6E5A   60                   RTS
6E5B   38         L6E5B     SEC
6E5C   60                   RTS
6E5D   38         L6E5D     SEC
6E5E   90 18                BCC L6E78
6E60   90 3B      L6E60     BCC L6E9D
6E62   20 07 74             JSR L7407
6E65   F5 92                SBC $92,X
6E67   F0 D9                BEQ L6E42
6E69   4C 60 48             JMP $4860
6E6C   29 4C                AND #$4C
6E6E   22                   ???                ;00100010 '"'
6E6F   0C                   ???                ;00001100
6E70   A0 66                LDY #$66
6E72   33                   ???                ;00110011 '3'
6E73   FC                   ???                ;11111100
6E74   00                   BRK
6E75   20 0F 8B             JSR L8B0F
6E78   52         L6E78     ???                ;01010010 'R'
6E79   A0 9B                LDY #$9B
6E7B   A4 6E                LDY $6E
6E7D   01 81                ORA ($81,X)
6E7F   6E FF 08             ROR $08FF
6E82   38                   SEC
6E83   E9 B1                SBC #$B1
6E85   85 5C                STA $5C
6E87   20 E2 91             JSR L91E2
6E8A   85 37                STA $37
6E8C   A5 12                LDA $12
6E8E   85 36      L6E8E     STA $36
6E90   A0 2D                LDY #$2D
6E92   B1 36                LDA ($36),Y
6E94   29 1C                AND #$1C
6E96   C9 01                CMP #$01
6E98   2A                   ROL A
6E99   28                   PLP
6E9A   6A                   ROR A
6E9B   B0 07                BCS L6EA4
6E9D   50 07      L6E9D     BVC L6EA6
6E9F   20 14 6F             JSR L6F14
6EA2   90 1B                BCC L6EBF
6EA4   38         L6EA4     SEC
6EA5   60                   RTS
6EA6   20 07 74   L6EA6     JSR L7407
6EA9   F4                   ???                ;11110100
6EAA   A0 66                LDY #$66
6EAC   30 33                BMI L6EE1
6EAE   78                   SEI
6EAF   48                   PHA
6EB0   29 4F                AND #$4F
6EB2   FD F7 A0             SBC $A0F7,X
6EB5   20 1A 73             JSR L731A
6EB8   B0 EA                BCS L6EA4
6EBA   20 03 F6             JSR $F603
6EBD   B0 07                BCS L6EC6
6EBF   A5 58      L6EBF     LDA $58
6EC1   20 40 EF             JSR $EF40
6EC4   D0 17                BNE L6EDD
6EC6   20 07 74   L6EC6     JSR L7407
6EC9   F5 DF                SBC $DF,X
6ECB   40                   RTI
6ECC   95 EE                STA $EE,X
6ECE   D4                   ???                ;11010100
6ECF   C2                   ???                ;11000010
6ED0   B7                   ???                ;10110111
6ED1   3E C1 9A             ROL $9AC1,X
6ED4   45 30                EOR $30
6ED6   CA                   DEX
6ED7   06 63                ASL $63
6ED9   38                   SEC
6EDA   00                   BRK
6EDB   90 30                BCC L6F0D
6EDD   20 5B EC   L6EDD     JSR $EC5B
6EE0   A0 25                LDY #$25
6EE2   38                   SEC
6EE3   B1 36                LDA ($36),Y
6EE5   E5 93                SBC $93
6EE7   C8                   INY
6EE8   B1 36                LDA ($36),Y
6EEA   E9 00                SBC #$00
6EEC   B0 16                BCS L6F04
6EEE   20 07 74             JSR L7407
6EF1   F3                   ???                ;11110011
6EF2   9F                   ???                ;10011111
6EF3   30 99                BMI L6E8E
6EF5   CF                   ???                ;11001111
6EF6   A2 12                LDX #$12
6EF8   19 40 CC             ORA $CC40,Y
6EFB   60                   RTS
6EFC   60                   RTS
6EFD   F5 3A                SBC $3A,X
6EFF   72                   ???                ;01110010 'r'
6F00   E0 00                CPX #$00
6F02   90 09                BCC L6F0D
6F04   A6 58      L6F04     LDX $58
6F06   BD 2A ED             LDA $ED2A,X
6F09   29 07                AND #$07
6F0B   18                   CLC
6F0C   60                   RTS

; -- ??? -----------------------------------------------------------------
6F0D   20 0F 8B   L6F0D     JSR L8B0F
6F10   06 A2                ASL $A2    ; calling parameters ?
6F12   38                   SEC        ; pc returns here
6F13   60                   RTS
6F14   38         L6F14     SEC
6F15   60                   RTS
6F16   18         L6F16     CLC
6F17   68                   PLA
6F18   85 12                STA $12
6F1A   69 02                ADC #$02
6F1C   A8                   TAY
6F1D   68                   PLA
6F1E   85 13                STA $13
6F20   69 00                ADC #$00
6F22   48                   PHA
6F23   98                   TYA
6F24   48                   PHA
6F25   A0 01                LDY #$01
6F27   B1 12                LDA ($12),Y
6F29   8D 3F 6F             STA $6F3F
6F2C   C8                   INY
6F2D   B1 12                LDA ($12),Y
6F2F   8D 40 6F             STA $6F40
6F32   A2 00                LDX #$00
6F34   20 E4 91   L6F34     JSR L91E4
6F37   8E 42 6F             STX $6F42
6F3A   A0 00                LDY #$00
6F3C   B1 12                LDA ($12),Y
6F3E   20 FF FF             JSR $FFFF
6F41   A2 00                LDX #$00
6F43   E8                   INX
6F44   E8                   INX
6F45   E0 0E                CPX #$0E
6F47   90 EB                BCC L6F34
6F49   60                   RTS
6F4A   20 16 6F   L6F4A     JSR L6F16
6F4D   50 6F                BVC L6FBE
6F4F   60         L6F4F     RTS
6F50   D0 FD                BNE L6F4F
6F52   A5 12                LDA $12
6F54   85 36                STA $36
6F56   A5 13                LDA $13
6F58   85 37                STA $37
6F5A   68                   PLA
6F5B   68                   PLA
6F5C   18                   CLC
6F5D   60                   RTS
6F5E   A2 0C      L6F5E     LDX #$0C
6F60   20 E4 91   L6F60     JSR L91E4
6F63   A0 00                LDY #$00
6F65   B1 12                LDA ($12),Y
6F67   F0 0E                BEQ L6F77
6F69   A0 67                LDY #$67
6F6B   B1 12                LDA ($12),Y
6F6D   D0 08                BNE L6F77
6F6F   A0 2D                LDY #$2D
6F71   B1 12                LDA ($12),Y
6F73   29 1C                AND #$1C
6F75   F0 08                BEQ L6F7F
6F77   CA         L6F77     DEX
6F78   CA                   DEX
6F79   10 E5                BPL L6F60
6F7B   A9 00                LDA #$00
6F7D   38                   SEC
6F7E   60                   RTS
6F7F   8A         L6F7F     TXA
6F80   4A                   LSR A
6F81   18                   CLC
6F82   60                   RTS
6F83   8D A4 6F   L6F83     STA $6FA4
6F86   8A                   TXA
6F87   0A                   ASL A
6F88   A8                   TAY
6F89   B9 22 D5             LDA $D522,Y
6F8C   85 3C                STA $3C
6F8E   B9 23 D5             LDA $D523,Y
6F91   85 3D                STA $3D
6F93   A0 00                LDY #$00
6F95   B1 3C                LDA ($3C),Y
6F97   F0 1E                BEQ L6FB7
6F99   A0 31                LDY #$31
6F9B   B1 3C      L6F9B     LDA ($3C),Y
6F9D   AA                   TAX
6F9E   BD 73 E7             LDA $E773,X
6FA1   29 0F                AND #$0F
6FA3   C9 00                CMP #$00
6FA5   D0 09                BNE L6FB0
6FA7   88                   DEY
6FA8   B1 3C                LDA ($3C),Y
6FAA   29 03                AND #$03
6FAC   C9 01                CMP #$01
6FAE   18                   CLC
6FAF   60                   RTS
6FB0   C8         L6FB0     INY
6FB1   C8                   INY
6FB2   C8                   INY
6FB3   C0 54                CPY #$54
6FB5   90 E4                BCC L6F9B
6FB7   38         L6FB7     SEC
6FB8   A9 FF                LDA #$FF
6FBA   60                   RTS
6FBB   8A         L6FBB     TXA
6FBC   20 E2 91             JSR L91E2
6FBF   A0 31                LDY #$31
6FC1   B1 12      L6FC1     LDA ($12),Y
6FC3   AA                   TAX
6FC4   BD 73 E5             LDA $E573,X
6FC7   29 0F                AND #$0F
6FC9   C9 06                CMP #$06
6FCB   D0 11                BNE L6FDE
6FCD   88                   DEY
6FCE   B1 12                LDA ($12),Y
6FD0   29 03                AND #$03
6FD2   C9 01                CMP #$01
6FD4   D0 07                BNE L6FDD
6FD6   BD 73 E7             LDA $E773,X
6FD9   29 0F      L6FD9     AND #$0F
6FDB   18                   CLC
6FDC   60                   RTS
6FDD   C8         L6FDD     INY
6FDE   C8         L6FDE     INY
6FDF   C8                   INY
6FE0   C8                   INY
6FE1   C0 54                CPY #$54
6FE3   90 DC                BCC L6FC1
6FE5   60                   RTS
6FE6   A6 53      L6FE6     LDX $53
6FE8   24 55                BIT $55
6FEA   10 11                BPL L6FFD
6FEC   BD 73 E5             LDA $E573,X
6FEF   29 0F                AND #$0F
6FF1   0A                   ASL A
6FF2   AA                   TAX
6FF3   BD 09 70             LDA $7009,X
6FF6   BC 0A 70             LDY $700A,X
6FF9   AA                   TAX
6FFA   4C 19 74             JMP L7419
6FFD   CA         L6FFD     DEX
6FFE   8A                   TXA
6FFF   A2 74                LDX #$74
7001   A0 DA                LDY #$DA
7003   20 6F 70             JSR L706F
7006   4C 19 74             JMP L7419
7009   27                   ???                ;00100111 '''
700A   70 2B                BVS L7037
700C   70 30                BVS L703E
700E   70 35                BVS L7045
7010   70 3A                BVS L704C
7012   70 3E                BVS L7052
7014   70 43                BVS L7059
7016   70 4B                BVS L7063
7018   70 52                BVS L706C
701A   70 56      L701A     BVS L7072
701C   70 5A                BVS L7078
701E   70 5E                BVS L707E
7020   70 62                BVS L7084
7022   70 68                BVS L708C
7024   70 35                BVS L705B
7026   70 F2                BVS L701A
7028   A6 66                LDX $66
702A   80                   ???                ;10000000
702B   F5 8C                SBC $8C,X
702D   28                   PLP
702E   3D C0 F4             AND $F4C0,X
7031   92                   ???                ;10010010
7032   A3                   ???                ;10100011
7033   30 A0                BMI L6FD5
7035   F0 A2                BEQ L6FD9
7037   D7         L7037     ???                ;11010111
7038   C4 00                CPY $00
703A   F2                   ???                ;11110010
703B   4C C6 80             JMP L80C6
703E   F2         L703E     ???                ;11110010
703F   18         L703F     CLC
7040   FA                   ???                ;11111010
7041   9A                   TXS
7042   40                   RTI
7043   F2                   ???                ;11110010
7044   9D 29 C6             STA $C629,X
7047   8D 33 A6             STA $A633
704A   00                   BRK
704B   F1 D4                SBC ($D4),Y
704D   8A                   TXA
704E   45 4E                EOR $4E
7050   30 00                BMI L7052
7052   F4         L7052     ???                ;11110100
7053   54                   ???                ;01010100 'T'
7054   E4 00                CPX $00
7056   F5 84                SBC $84,X
7058   E2                   ???                ;11100010
7059   80         L7059     ???                ;10000000
705A   F2                   ???                ;11110010
705B   A6 66      L705B     LDX $66
705D   80                   ???                ;10000000
705E   F0 DF                BEQ L703F
7060   60                   RTS
7061   00                   BRK
7062   F7                   ???                ;11110111
7063   C1 A2      L7063     CMP ($A2,X)
7065   AA                   TAX
7066   68                   PLA
7067   80                   ???                ;10000000
7068   F1 1E                SBC ($1E),Y
706A   E9 89                SBC #$89
706C   4E 34 40   L706C     LSR $4034
706F   EC 00 BA   L706F     CPX $BA00
7072   D0 05      L7072     BNE L7079
7074   CC 01 BA             CPY $BA01
7077   F0 05                BEQ L707E
7079   48         L7079     PHA
707A   20 92 70             JSR L7092
707D   68                   PLA
707E   0A         L707E     ASL A
707F   AA                   TAX
7080   B0 08                BCS L708A
7082   BD 00 BA             LDA $BA00,X
7085   BC 01 BA             LDY $BA01,X
7088   AA                   TAX
7089   60                   RTS
708A   BD 00 BB   L708A     LDA $BB00,X
708D   BC 01 BB             LDY $BB01,X
7090   AA                   TAX
7091   60                   RTS
7092   8E 03 75   L7092     STX L7503
7095   8C 04 75             STY $7504
7098   A9 00                LDA #$00
709A   8D BF 70             STA $70BF
709D   A9 BA                LDA #$BA
709F   8D C0 70             STA $70C0
70A2   AD 03 75   L70A2     LDA L7503
70A5   20 BE 70             JSR L70BE
70A8   AD 04 75             LDA $7504
70AB   20 BE 70             JSR L70BE
70AE   20 65 74             JSR L7465
70B1   20 6F 74             JSR L746F
70B4   F0 07                BEQ L70BD
70B6   20 6F 74   L70B6     JSR L746F
70B9   D0 FB                BNE L70B6
70BB   F0 E5                BEQ L70A2
70BD   60         L70BD     RTS
70BE   8D FF FF   L70BE     STA $FFFF
70C1   EE BF 70             INC $70BF
70C4   D0 03                BNE L70C9
70C6   EE C0 70             INC $70C0
70C9   60         L70C9     RTS
70CA   C8         L70CA     INY
70CB   C8                   INY
70CC   B1 36                LDA ($36),Y
70CE   C9 FF                CMP #$FF
70D0   F0 09                BEQ L70DB
70D2   38                   SEC
70D3   E9 01                SBC #$01
70D5   91 36                STA ($36),Y
70D7   90 05                BCC L70DE
70D9   F0 03                BEQ L70DE
70DB   88         L70DB     DEY
70DC   88                   DEY
70DD   60         L70DD     RTS
70DE   A9 00      L70DE     LDA #$00
70E0   91 36                STA ($36),Y
70E2   88                   DEY
70E3   98                   TYA
70E4   48                   PHA
70E5   B1 36                LDA ($36),Y
70E7   A8                   TAY
70E8   B9 73 E2             LDA $E273,Y
70EB   A8                   TAY
70EC   68                   PLA
70ED   C0 01                CPY #$01
70EF   08                   PHP
70F0   A8                   TAY
70F1   88                   DEY
70F2   28                   PLP
70F3   D0 E8                BNE L70DD
70F5   98         L70F5     TYA
70F6   48                   PHA
70F7   8A                   TXA
70F8   48                   PHA
70F9   C0 51      L70F9     CPY #$51
70FB   B0 12                BCS L710F
70FD   A2 03                LDX #$03
70FF   C8         L70FF     INY
7100   C8                   INY
7101   C8                   INY
7102   B1 36                LDA ($36),Y
7104   88                   DEY
7105   88                   DEY
7106   88                   DEY
7107   91 36                STA ($36),Y
7109   C8                   INY
710A   CA                   DEX
710B   D0 F2                BNE L70FF
710D   F0 EA                BEQ L70F9
710F   A2 03      L710F     LDX #$03
7111   A9 00                LDA #$00
7113   91 36      L7113     STA ($36),Y
7115   C8                   INY
7116   CA                   DEX
7117   D0 FA                BNE L7113
7119   68                   PLA
711A   AA                   TAX
711B   68                   PLA
711C   A8                   TAY
711D   60                   RTS
711E   A5 36      L711E     LDA $36
7120   48                   PHA
7121   A5 37                LDA $37
7123   48                   PHA
7124   20 16 6F             JSR L6F16
7127   30 71                BMI L719A
7129   68                   PLA
712A   85 37                STA $37
712C   68                   PLA
712D   85 36                STA $36
712F   60                   RTS
7130   A5 12                LDA $12
7132   85 36                STA $36
7134   A5 13                LDA $13
7136   85 37                STA $37
7138   A0 31      L7138     LDY #$31
713A   B1 36      L713A     LDA ($36),Y
713C   C9 76                CMP #$76
713E   F0 04                BEQ L7144
7140   C9 7D                CMP #$7D
7142   D0 0F                BNE L7153
7144   C8         L7144     INY
7145   B1 36                LDA ($36),Y
7147   88                   DEY
7148   C9 00                CMP #$00
714A   D0 07                BNE L7153
714C   88                   DEY
714D   20 F5 70             JSR L70F5
7150   4C 38 71             JMP L7138
7153   C8         L7153     INY
7154   C8                   INY
7155   C8                   INY
7156   C0 54                CPY #$54
7158   90 E0                BCC L713A
715A   60                   RTS
715B   0A         L715B     ASL A
715C   AA                   TAX
715D   BD 22 D5             LDA $D522,X
7160   85 42                STA $42
7162   BD 23 D5             LDA $D523,X
7165   85 43                STA $43
7167   A0 00                LDY #$00
7169   B1 42                LDA ($42),Y
716B   F0 0F                BEQ L717C
716D   A0 31                LDY #$31
716F   B1 42      L716F     LDA ($42),Y
7171   F0 0B                BEQ L717E
7173   C8                   INY
7174   C8                   INY
7175   C8                   INY
7176   C0 54                CPY #$54
7178   90 F5                BCC L716F
717A   A9 01                LDA #$01
717C   38         L717C     SEC
717D   60                   RTS
717E   88         L717E     DEY
717F   8C 97 71             STY $7197
7182   A0 29                LDY #$29
7184   B1 42                LDA ($42),Y
7186   A8                   TAY
7187   A6 53                LDX $53
7189   BD 73 E6             LDA $E673,X
718C   39 87 D9             AND $D987,Y
718F   D0 03                BNE L7194
7191   A9 02                LDA #$02
7193   2C A9 00             BIT $00A9
7196   A0 00                LDY #$00
7198   05 55                ORA $55
719A   91 42      L719A     STA ($42),Y
719C   C8                   INY
719D   A5 53                LDA $53
719F   91 42                STA ($42),Y
71A1   C8                   INY
71A2   A5 56                LDA $56
71A4   91 42                STA ($42),Y
71A6   18                   CLC
71A7   60                   RTS
71A8   98         L71A8     TYA
71A9   48                   PHA
71AA   20 C6 71             JSR L71C6
71AD   68                   PLA
71AE   A8                   TAY
71AF   98         L71AF     TYA
71B0   48                   PHA
71B1   38                   SEC
71B2   A2 00                LDX #$00
71B4   B1 36      L71B4     LDA ($36),Y
71B6   F5 AB                SBC $AB,X
71B8   C8                   INY
71B9   E8                   INX
71BA   8A                   TXA
71BB   49 04                EOR #$04
71BD   D0 F5                BNE L71B4
71BF   68                   PLA
71C0   A8                   TAY
71C1   6A                   ROR A
71C2   49 80                EOR #$80
71C4   0A                   ASL A
71C5   60                   RTS
71C6   A9 00      L71C6     LDA #$00
71C8   85 AB                STA $AB
71CA   85 AC                STA $AC
71CC   85 AD                STA $AD
71CE   85 AE                STA $AE
71D0   8A                   TXA
71D1   29 07                AND #$07
71D3   A8                   TAY
71D4   8A                   TXA
71D5   4A                   LSR A
71D6   4A                   LSR A
71D7   4A                   LSR A
71D8   AA                   TAX
71D9   F0 2C                BEQ L7207
71DB   18         L71DB     CLC
71DC   B9 EF 72             LDA $72EF,Y
71DF   65 AB                ADC $AB
71E1   85 AB                STA $AB
71E3   B9 F9 72             LDA $72F9,Y
71E6   65 AC                ADC $AC
71E8   85 AC                STA $AC
71EA   B9 03 73             LDA $7303,Y
71ED   65 AD                ADC $AD
71EF   85 AD                STA $AD
71F1   B9 0D 73             LDA $730D,Y
71F4   65 AE                ADC $AE
71F6   85 AE                STA $AE
71F8   90 0A                BCC L7204
71FA   A9 FF                LDA #$FF
71FC   85 AB                STA $AB
71FE   85 AC                STA $AC
7200   85 AD                STA $AD
7202   85 AE                STA $AE
7204   CA         L7204     DEX
7205   D0 D4                BNE L71DB
7207   60         L7207     RTS
7208   A2 00      L7208     LDX #$00
720A   38                   SEC
720B   B1 36      L720B     LDA ($36),Y
720D   F5 AB                SBC $AB,X
720F   91 36                STA ($36),Y
7211   C8                   INY
7212   E8                   INX
7213   8A                   TXA
7214   49 04                EOR #$04
7216   D0 F3                BNE L720B
7218   60                   RTS
7219   A2 00                LDX #$00
721B   38                   SEC
721C   B5 AB      L721C     LDA $AB,X
721E   F1 36                SBC ($36),Y
7220   95 AB                STA $AB,X
7222   C8                   INY
7223   E8                   INX
7224   8A                   TXA
7225   49 04                EOR #$04
7227   D0 F3                BNE L721C
7229   60                   RTS
722A   A0 1C                LDY #$1C
722C   A2 03                LDX #$03
722E   B1 36      L722E     LDA ($36),Y
7230   95 AB                STA $AB,X
7232   88                   DEY
7233   CA                   DEX
7234   10 F8                BPL L722E
7236   60                   RTS
7237   A0 18                LDY #$18
7239   A2 03                LDX #$03
723B   B5 AB      L723B     LDA $AB,X
723D   91 38                STA ($38),Y
723F   88                   DEY
7240   CA                   DEX
7241   10 F8                BPL L723B
7243   60                   RTS
7244   A2 00                LDX #$00
7246   B1 36      L7246     LDA ($36),Y
7248   95 9B                STA $9B,X
724A   C8                   INY
724B   E8                   INX
724C   E0 04                CPX #$04
724E   90 F6                BCC L7246
7250   6E EE 72             ROR $72EE
7253   4C 8E 72             JMP L728E
7256   A2 03      L7256     LDX #$03
7258   B5 AB      L7258     LDA $AB,X
725A   95 9B                STA $9B,X
725C   CA                   DEX
725D   10 F9                BPL L7258
725F   4C 8E 72             JMP L728E
7262   38                   SEC
7263   6E EE 72             ROR $72EE
7266   A5 9B                LDA $9B
7268   C9 0F                CMP #$0F
726A   A5 9C                LDA $9C
726C   E9 27                SBC #$27
726E   90 08                BCC L7278
7270   A9 0F                LDA #$0F
7272   85 9B                STA $9B
7274   A9 27                LDA #$27
7276   85 9C                STA $9C
7278   A9 C5      L7278     LDA #$C5
727A   8D DB 72             STA $72DB
727D   A9 85                LDA #$85
727F   8D DC 72             STA $72DC
7282   A2 03                LDX #$03
7284   2C A2 04             BIT $04A2
7287   A9 00                LDA #$00
7289   85 9D                STA $9D
728B   85 9E                STA $9E
728D   2C A2 09             BIT $09A2
7290   86 B1                STX $B1
7292   A0 B0      L7292     LDY #$B0
7294   A5 9B      L7294     LDA $9B
7296   DD EF 72             CMP $72EF,X
7299   A5 9C                LDA $9C
729B   FD F9 72             SBC $72F9,X
729E   A5 9D                LDA $9D
72A0   FD 03 73             SBC $7303,X
72A3   A5 9E                LDA $9E
72A5   FD 0D 73             SBC $730D,X
72A8   90 1A                BCC L72C4
72AA   85 9E                STA $9E
72AC   A5 9B                LDA $9B
72AE   FD EF 72             SBC $72EF,X
72B1   85 9B                STA $9B
72B3   A5 9C                LDA $9C
72B5   FD F9 72             SBC $72F9,X
72B8   85 9C                STA $9C
72BA   A5 9D                LDA $9D
72BC   FD 03 73             SBC $7303,X
72BF   85 9D                STA $9D
72C1   C8                   INY
72C2   D0 D0                BNE L7294
72C4   E0 00      L72C4     CPX #$00
72C6   F0 11                BEQ L72D9
72C8   C0 B0                CPY #$B0
72CA   F0 02                BEQ L72CE
72CC   84 B1                STY $B1
72CE   24 B1      L72CE     BIT $B1
72D0   30 07                BMI L72D9
72D2   2C EE 72             BIT $72EE
72D5   10 06                BPL L72DD
72D7   A0 A0                LDY #$A0
72D9   98         L72D9     TYA
72DA   20 8E 84             JSR L848E
72DD   CA         L72DD     DEX
72DE   10 B2                BPL L7292
72E0   A9 8E                LDA #$8E
72E2   8D DB 72             STA $72DB
72E5   A9 84                LDA #$84
72E7   8D DC 72             STA $72DC
72EA   4E EE 72             LSR $72EE
72ED   60                   RTS
72EE   00                   BRK
72EF   01 0A                ORA ($0A,X)
72F1   64                   ???                ;01100100 'd'
72F2   E8                   INX
72F3   10 A0                BPL L7295
72F5   40                   RTI
72F6   80                   ???                ;10000000
72F7   00                   BRK
72F8   00                   BRK
72F9   00                   BRK
72FA   00                   BRK
72FB   00                   BRK
72FC   03                   ???                ;00000011
72FD   27                   ???                ;00100111 '''
72FE   86 42                STX $42
7300   96 E1                STX $E1,Y
7302   CA                   DEX
7303   00                   BRK
7304   00                   BRK
7305   00                   BRK
7306   00                   BRK
7307   00                   BRK
7308   01 0F                ORA ($0F,X)
730A   98                   TYA
730B   F5 9A                SBC $9A,X
730D   00                   BRK
730E   00                   BRK
730F   00                   BRK
7310   00                   BRK
7311   00                   BRK
7312   00                   BRK
7313   00                   BRK
7314   00                   BRK
7315   05 3B                ORA $3B
7317   A9 10                LDA #$10
7319   2C A9 00             BIT $00A9
731C   8D 37 73             STA $7337
731F   20 20 85             JSR L8520
7322   A2 0F                LDX #$0F
7324   A9 FF                LDA #$FF
7326   9D 00 02   L7326     STA $0200,X
7329   CA                   DEX
732A   10 FA                BPL L7326
732C   20 84 73             JSR L7384
732F   A2 00                LDX #$00
7331   8A         L7331     TXA
7332   48                   PHA
7333   20 0F 8B             JSR L8B0F
7336   80                   ???                ;10000000
7337   10 A8                BPL L72E1
7339   68                   PLA
733A   AA                   TAX
733B   98                   TYA
733C   C9 AF                CMP #$AF
733E   F0 F1                BEQ L7331
7340   C9 DC                CMP #$DC
7342   F0 ED                BEQ L7331
7344   C9 FF                CMP #$FF
7346   F0 25                BEQ L736D
7348   C9 88                CMP #$88
734A   F0 21                BEQ L736D
734C   C9 8D                CMP #$8D
734E   F0 0F                BEQ L735F
7350   C9 A0                CMP #$A0
7352   90 DD                BCC L7331
7354   9D 00 02             STA $0200,X
7357   20 84 73             JSR L7384
735A   E8                   INX
735B   E0 0F                CPX #$0F
735D   90 D2                BCC L7331
735F   20 82 73   L735F     JSR L7382
7362   38                   SEC
7363   8A                   TXA
7364   F0 01                BEQ L7367
7366   18                   CLC
7367   08         L7367     PHP
7368   20 8C 84             JSR L848C
736B   28                   PLP
736C   60                   RTS
736D   E0 00      L736D     CPX #$00
736F   F0 C0                BEQ L7331
7371   CA                   DEX
7372   A9 FF                LDA #$FF
7374   9D 00 02             STA $0200,X
7377   20 84 73             JSR L7384
737A   A9 A0                LDA #$A0
737C   20 C5 85             JSR L85C5
737F   4C 31 73             JMP L7331
7382   38         L7382     SEC
7383   24 18                BIT $18
7385   08                   PHP
7386   8A                   TXA
7387   48                   PHA
7388   A9 22                LDA #$22
738A   85 20                STA $20
738C   A9 BC                LDA #$BC
738E   20 C5 85             JSR L85C5
7391   A9 12                LDA #$12
7393   85 20                STA $20
7395   A9 BA                LDA #$BA
7397   20 C5 85             JSR L85C5
739A   A2 00                LDX #$00
739C   BD 00 02   L739C     LDA $0200,X
739F   C9 FF                CMP #$FF
73A1   F0 08                BEQ L73AB
73A3   20 C5 85             JSR L85C5
73A6   E8                   INX
73A7   E0 10                CPX #$10
73A9   90 F1                BCC L739C
73AB   68         L73AB     PLA
73AC   AA                   TAX
73AD   28                   PLP
73AE   A9 A0                LDA #$A0
73B0   B0 02                BCS L73B4
73B2   A9 FE                LDA #$FE
73B4   4C C5 85   L73B4     JMP L85C5
73B7   A0 00      L73B7     LDY #$00
73B9   84 A1                STY $A1
73BB   84 A2                STY $A2
73BD   84 A3                STY $A3
73BF   84 A4                STY $A4
73C1   84 A0                STY $A0
73C3   A9 0A                LDA #$0A
73C5   85 9F                STA $9F
73C7   B9 00 02   L73C7     LDA $0200,Y
73CA   C8                   INY
73CB   49 B0                EOR #$B0
73CD   C9 0A                CMP #$0A
73CF   B0 2C                BCS L73FD
73D1   48                   PHA
73D2   98                   TYA
73D3   48                   PHA
73D4   20 5D 91             JSR L915D
73D7   68                   PLA
73D8   A8                   TAY
73D9   68                   PLA
73DA   18                   CLC
73DB   65 9B                ADC $9B
73DD   85 A1                STA $A1
73DF   A5 9C                LDA $9C
73E1   69 00                ADC #$00
73E3   85 A2                STA $A2
73E5   A5 9D                LDA $9D
73E7   69 00                ADC #$00
73E9   85 A3                STA $A3
73EB   A5 9E                LDA $9E
73ED   69 00                ADC #$00
73EF   85 A4                STA $A4
73F1   90 D4                BCC L73C7
73F3   A2 03                LDX #$03
73F5   A9 FF                LDA #$FF
73F7   95 AB      L73F7     STA $AB,X
73F9   CA                   DEX
73FA   10 FB                BPL L73F7
73FC   60                   RTS
73FD   A2 03      L73FD     LDX #$03
73FF   B5 A1      L73FF     LDA $A1,X
7401   95 AB                STA $AB,X
7403   CA                   DEX
7404   10 F9                BPL L73FF
7406   60                   RTS

7407   20 73 86   L7407     JSR L8673
740A   68         L740A     PLA
740B   AA                   TAX
740C   68                   PLA
740D   A8                   TAY
740E   E8                   INX
740F   D0 01                BNE L7412
7411   C8                   INY
7412   20 19 74   L7412     JSR L7419
7415   18                   CLC
7416   6C 03 75             JMP (L7503)
7419   8E 03 75   L7419     STX L7503
741C   8C 04 75             STY $7504
741F   20 65 74             JSR L7465
7422   20 6F 74   L7422     JSR L746F
7425   F0 36                BEQ L745D
7427   C9 AF                CMP #$AF
7429   F0 06                BEQ L7431
742B   20 8E 84             JSR L848E
742E   4C 22 74             JMP L7422
7431   A9 80      L7431     LDA #$80
7433   A6 4F                LDX $4F
7435   F0 02                BEQ L7439
7437   A9 00                LDA #$00
7439   8D 64 74   L7439     STA $7464
743C   20 6F 74   L743C     JSR L746F
743F   F0 1C                BEQ L745D
7441   C9 DC                CMP #$DC
7443   F0 0B                BEQ L7450
7445   2C 64 74             BIT $7464
7448   10 F2                BPL L743C
744A   20 8E 84             JSR L848E
744D   4C 3C 74             JMP L743C
7450   AD 64 74   L7450     LDA $7464
7453   49 81                EOR #$81
7455   8D 64 74             STA $7464
7458   4A                   LSR A
7459   B0 E1                BCS L743C
745B   90 C5                BCC L7422
745D   AE 03 75   L745D     LDX L7503
7460   AC 04 75             LDY $7504
7463   60                   RTS
7464   00                   BRK

; -- ??? -----------------------------------------------------------------
7465   A2 FF      L7465     LDX #$FF
7467   86 B7                STX $B7
7469   E8                   INX
746A   86 B9                STX $B9
746C   60                   RTS


; -- ??? -----------------------------------------------------------------
746D   66 B9      L746D     ROR $B9
746F   20 FA 74   L746F     JSR L74FA
7472   09 00                ORA #$00
7474   F0 22                BEQ L7498
7476   C9 1E                CMP #$1E
7478   F0 F3                BEQ L746D
747A   C9 1F                CMP #$1F
747C   D0 06                BNE L7484
747E   20 F7 74             JSR L74F7
7481   38                   SEC
7482   69 1D                ADC #$1D
7484   AA         L7484     TAX
7485   BD 9A 74             LDA $749A,X
7488   46 B9                LSR $B9
748A   24 B9                BIT $B9
748C   50 0A                BVC L7498
748E   C9 E1                CMP #$E1
7490   90 06                BCC L7498
7492   C9 FB                CMP #$FB
7494   B0 02                BCS L7498
7496   29 DF                AND #$DF
7498   09 00      L7498     ORA #$00
749A   60                   RTS
749B   A0 E1                LDY #$E1
749D   E2                   ???                ;11100010
749E   E3         L749E     ???                ;11100011
749F   E4 E5                CPX $E5
74A1   E6 E7                INC $E7
74A3   E8                   INX
74A4   E9 EB                SBC #$EB
74A6   EC ED EE             CPX $EEED
74A9   EF                   ???                ;11101111
74AA   F0 F2                BEQ L749E
74AC   F3                   ???                ;11110011
74AD   F4                   ???                ;11110100
74AE   F5 F6                SBC $F6,X
74B0   F7                   ???                ;11110111
74B1   F9 AE A2             SBC $A2AE,Y
74B4   A7                   ???                ;10100111
74B5   AC A1 8D             LDY $8DA1
74B8   EA                   NOP
74B9   F1 F8                SBC ($F8),Y
74BB   FA                   ???                ;11111010
74BC   B0 B1                BCS L746F
74BE   B2                   ???                ;10110010
74BF   B3                   ???                ;10110011
74C0   B4 B5                LDY $B5,X
74C2   B6 B7                LDX $B7,Y
74C4   B8                   CLV
74C5   B9 30 31             LDA $3130,Y
74C8   32                   ???                ;00110010 '2'
74C9   33                   ???                ;00110011 '3'
74CA   34                   ???                ;00110100 '4'
74CB   35 36                AND $36,X
74CD   37                   ???                ;00110111 '7'
74CE   38                   SEC
74CF   39 41 42             AND $4241,Y
74D2   43                   ???                ;01000011 'C'
74D3   44                   ???                ;01000100 'D'
74D4   45 46                EOR $46
74D6   47                   ???                ;01000111 'G'
74D7   48                   PHA
74D8   49 4A                EOR #$4A
74DA   4B                   ???                ;01001011 'K'
74DB   4C 4D 4E             JMP $4E4D
74DE   4F                   ???                ;01001111 'O'
74DF   50 51                BVC L7532
74E1   52                   ???                ;01010010 'R'
74E2   53                   ???                ;01010011 'S'
74E3   54                   ???                ;01010100 'T'
74E4   55 56                EOR $56,X
74E6   57                   ???                ;01010111 'W'
74E7   58                   CLI
74E8   59 5A A8             EOR $A85A,Y
74EB   A9 AF                LDA #$AF
74ED   DC                   ???                ;11011100
74EE   A3                   ???                ;10100011
74EF   AA                   TAX
74F0   BF                   ???                ;10111111
74F1   BC BE BA             LDY $BABE,X
74F4   BB                   ???                ;10111011
74F5   AD A5 A0             LDA $A0A5
74F8   06 2C                ASL $2C

; -- ??? -----------------------------------------------------------------
74FA   A0 05      L74FA     LDY #$05
74FC   A9 00                LDA #$00
74FE   24 B7      L74FE     BIT $B7
7500   10 11                BPL L7513
7502   AE FF FF             LDX $FFFF
7505   EE 03 75             INC L7503
7508   D0 03                BNE L750D
750A   EE 04 75             INC $7504
750D   86 B8      L750D     STX $B8
750F   A2 07                LDX #$07
7511   86 B7                STX $B7
7513   06 B8      L7513     ASL $B8
7515   2A                   ROL A
7516   C6 B7                DEC $B7
7518   88                   DEY
7519   D0 E3                BNE L74FE
751B   60                   RTS

; -- ??? -----------------------------------------------------------------
751C   86 38      L751C     STX $38
751E   84 39                STY $39
7520   A0 00                LDY #$00
7522   8C 3F 75             STY $753F
7525   B1 38      L7525     LDA ($38),Y
7527   C9 FF                CMP #$FF
7529   F0 13                BEQ L753E
752B   C9 AF                CMP #$AF
752D   F0 11                BEQ L7540
752F   C9 DC                CMP #$DC
7531   F0 10                BEQ L7543
7533   2C 3F 75             BIT $753F
7536   30 03                BMI L753B
7538   20 8E 84             JSR L848E
753B   C8         L753B     INY
753C   D0 E7                BNE L7525
753E   60         L753E     RTS
753F   00                   BRK
7540   A9 00      L7540     LDA #$00
7542   2C A9 80             BIT $80A9
7545   A6 4F                LDX $4F
7547   F0 02                BEQ L754B
7549   49 80                EOR #$80
754B   8D 3F 75   L754B     STA $753F
754E   4C 3B 75             JMP L753B
7551   A5 22      L7551     LDA $22
7553   48                   PHA
7554   A5 20                LDA $20
7556   48                   PHA
7557   A9 00                LDA #$00
7559   85 24                STA $24
755B   A9 64                LDA #$64
755D   85 22                STA $22
755F   A9 02                LDA #$02
7561   85 20                STA $20
7563   A0 00                LDY #$00
7565   A2 00                LDX #$00
7567   B1 38      L7567     LDA ($38),Y
7569   C9 FF                CMP #$FF
756B   F0 11                BEQ L757E
756D   C9 DC                CMP #$DC
756F   F0 0D                BEQ L757E
7571   C9 AF                CMP #$AF
7573   F0 47                BEQ L75BC
7575   9D 11 02             STA $0211,X
7578   E8                   INX
7579   C8         L7579     INY
757A   E0 0D                CPX #$0D
757C   90 E9                BCC L7567
757E   86 B1      L757E     STX $B1
7580   A9 0D                LDA #$0D
7582   85 B0                STA $B0
7584   38                   SEC
7585   E5 B1                SBC $B1
7587   4A                   LSR A
7588   AA                   TAX
7589   E0 00      L7589     CPX #$00
758B   F0 0B                BEQ L7598
758D   CA                   DEX
758E   C6 B0                DEC $B0
7590   A9 A0                LDA #$A0
7592   20 C5 85             JSR L85C5
7595   4C 89 75             JMP L7589
7598   A2 00      L7598     LDX #$00
759A   BD 11 02   L759A     LDA $0211,X
759D   20 C5 85             JSR L85C5
75A0   E8                   INX
75A1   E4 B1                CPX $B1
75A3   90 F5                BCC L759A
75A5   E4 B0      L75A5     CPX $B0
75A7   F0 08                BEQ L75B1
75A9   A9 A0                LDA #$A0
75AB   20 C5 85             JSR L85C5
75AE   E8                   INX
75AF   D0 F4                BNE L75A5
75B1   68         L75B1     PLA
75B2   85 20                STA $20
75B4   68                   PLA
75B5   85 22                STA $22
75B7   A9 FF                LDA #$FF
75B9   85 24                STA $24
75BB   60                   RTS
75BC   A5 4F      L75BC     LDA $4F
75BE   F0 B9                BEQ L7579
75C0   C8                   INY
75C1   B1 38      L75C1     LDA ($38),Y
75C3   C9 DC                CMP #$DC
75C5   F0 B2                BEQ L7579
75C7   C8                   INY
75C8   D0 F7                BNE L75C1
75CA   A0 10                LDY #$10
75CC   A2 00                LDX #$00
75CE   8E 47 03             STX $0347
75D1   B1 36      L75D1     LDA ($36),Y
75D3   9D 42 03             STA $0342,X
75D6   C8                   INY
75D7   E8                   INX
75D8   E0 05                CPX #$05
75DA   90 F5                BCC L75D1
75DC   60                   RTS
75DD   20 16 6F             JSR L6F16
75E0   E3                   ???                ;11100011
75E1   75 60                ADC $60,X
75E3   F0 FD                BEQ L75E2
75E5   A5 36                LDA $36
75E7   C5 12                CMP $12
75E9   D0 06                BNE L75F1
75EB   A5 37                LDA $37
75ED   C5 13                CMP $13
75EF   F0 F1                BEQ L75E2
75F1   A0 19      L75F1     LDY #$19
75F3   18                   CLC
75F4   B1 12      L75F4     LDA ($12),Y
75F6   71 36                ADC ($36),Y
75F8   91 36                STA ($36),Y
75FA   A9 00                LDA #$00
75FC   91 12                STA ($12),Y
75FE   C8                   INY
75FF   98                   TYA
7600   49 1D                EOR #$1D
7602   D0 F0                BNE L75F4
7604   90 DC                BCC L75E2
7606   A0 19                LDY #$19
7608   A9 FF                LDA #$FF
760A   91 36      L760A     STA ($36),Y
760C   C8                   INY
760D   C0 1D                CPY #$1D
760F   90 F9                BCC L760A
7611   60                   RTS
7612   A0 29                LDY #$29
7614   B1 36                LDA ($36),Y
7616   0A                   ASL A
7617   A8                   TAY
7618   B9 95 76             LDA $7695,Y
761B   85 12                STA $12
761D   B9 96 76             LDA $7696,Y
7620   85 13                STA $13
7622   A9 00                LDA #$00
7624   85 AB                STA $AB
7626   85 AC                STA $AC
7628   85 AD                STA $AD
762A   85 AE                STA $AE
762C   A5 4B                LDA $4B
762E   C9 0D                CMP #$0D
7630   A5 4C                LDA $4C
7632   E9 00                SBC #$00
7634   90 29                BCC L765F
7636   A5 4B                LDA $4B
7638   38                   SEC
7639   E9 0C                SBC #$0C
763B   85 9F                STA $9F
763D   A5 4C                LDA $4C
763F   E9 00                SBC #$00
7641   85 A0                STA $A0
7643   A9 80                LDA #$80
7645   85 A1                STA $A1
7647   A9 1A                LDA #$1A
7649   85 A2                STA $A2
764B   A9 06                LDA #$06
764D   85 A3                STA $A3
764F   A9 00                LDA #$00
7651   85 A4                STA $A4
7653   20 5D 91             JSR L915D
7656   A2 03                LDX #$03
7658   B5 9B      L7658     LDA $9B,X
765A   95 AB                STA $AB,X
765C   CA                   DEX
765D   10 F9                BPL L7658
765F   A5 4C      L765F     LDA $4C
7661   D0 07                BNE L766A
7663   A6 4B                LDX $4B
7665   CA                   DEX
7666   E0 0C                CPX #$0C
7668   90 02                BCC L766C
766A   A2 0B      L766A     LDX #$0B
766C   BC 88 76   L766C     LDY $7688,X
766F   A2 00                LDX #$00
7671   18                   CLC
7672   B1 12      L7672     LDA ($12),Y
7674   75 AB                ADC $AB,X
7676   95 AB                STA $AB,X
7678   C8                   INY
7679   E8                   INX
767A   8A                   TXA
767B   49 03                EOR #$03
767D   D0 F3                BNE L7672
767F   90 02                BCC L7683
7681   E6 AE                INC $AE
7683   A0 15      L7683     LDY #$15
7685   4C AF 71             JMP L71AF
7688   00                   BRK
7689   03         L7689     ???                ;00000011
768A   06 09                ASL $09
768C   0C                   ???                ;00001100
768D   0F                   ???                ;00001111
768E   12                   ???                ;00010010
768F   15 18                ORA $18,X
7691   1B                   ???                ;00011011
7692   1E 21 24             ASL $2421,X
7695   AF                   ???                ;10101111
7696   76 D3                ROR $D3,X
7698   76 F7                ROR $F7,X
769A   76 1B                ROR $1B,X
769C   77                   ???                ;01110111 'w'
769D   1B                   ???                ;00011011
769E   77                   ???                ;01110111 'w'
769F   AF                   ???                ;10101111
76A0   76 AF                ROR $AF,X
76A2   76 AF                ROR $AF,X
76A4   76 AF                ROR $AF,X
76A6   76 1B                ROR $1B,X
76A8   77                   ???                ;01110111 'w'
76A9   3F                   ???                ;00111111 '?'
76AA   77                   ???                ;01110111 'w'
76AB   3F                   ???                ;00111111 '?'
76AC   77                   ???                ;01110111 'w'
76AD   63                   ???                ;01100011 'c'
76AE   77                   ???                ;01110111 'w'
76AF   D0 07                BNE L76B8
76B1   00                   BRK
76B2   A0 0F                LDY #$0F
76B4   00                   BRK
76B5   58                   CLI
76B6   1B                   ???                ;00011011
76B7   00                   BRK
76B8   10 27      L76B8     BPL L76E1
76BA   00                   BRK
76BB   98                   TYA
76BC   3A                   ???                ;00111010 ':'
76BD   00                   BRK
76BE   20 4E 00             JSR $004E
76C1   30 75                BMI L7738
76C3   00                   BRK
76C4   50 C3                BVC L7689
76C6   00                   BRK
76C7   80                   ???                ;10000000
76C8   38                   SEC
76C9   01 B0                ORA ($B0,X)
76CB   AD 01 F0             LDA $F001
76CE   49 02                EOR #$02
76D0   40                   RTI
76D1   0D 03 20             ORA $2003
76D4   4E 00 50             LSR $5000
76D7   C3                   ???                ;11000011
76D8   00                   BRK
76D9   80                   ???                ;10000000
76DA   38                   SEC
76DB   01 C0                ORA ($C0,X)
76DD   D4                   ???                ;11010100
76DE   01 00                ORA ($00,X)
76E0   71 02                ADC ($02),Y
76E2   40                   RTI
76E3   0D 03 90             ORA $9003
76E6   D0 03                BNE L76EB
76E8   E0 93                CPX #$93
76EA   04                   ???                ;00000100
76EB   80         L76EB     ???                ;10000000
76EC   1A                   ???                ;00011010
76ED   06 C0                ASL $C0
76EF   27                   ???                ;00100111 '''
76F0   09 A0                ORA #$A0
76F2   BB                   ???                ;10111011
76F3   0D 20 D6             ORA $D620
76F6   13                   ???                ;00010011
76F7   58                   CLI
76F8   1B                   ???                ;00011011
76F9   00                   BRK
76FA   98                   TYA
76FB   3A                   ???                ;00111010 ':'
76FC   00                   BRK
76FD   A8                   TAY
76FE   61 00                ADC ($00,X)
7700   40                   RTI
7701   9C                   ???                ;10011100
7702   00                   BRK
7703   60                   RTS
7704   EA                   NOP
7705   00                   BRK
7706   80                   ???                ;10000000
7707   38                   SEC
7708   01 A0                ORA ($A0,X)
770A   86 01                STX $01
770C   D0 FB                BNE L7709
770E   01 10                ORA ($10,X)
7710   98                   TYA
7711   02                   ???                ;00000010
7712   60                   RTS
7713   5B                   ???                ;01011011 '['
7714   03                   ???                ;00000011
7715   E0 93                CPX #$93
7717   04                   ???                ;00000100
7718   80                   ???                ;10000000
7719   1A                   ???                ;00011010
771A   06 08                ASL $08
771C   07                   ???                ;00000111
771D   00                   BRK
771E   A0 0F                LDY #$0F
7720   00                   BRK
7721   70 17                BVS L773A
7723   00                   BRK
7724   10 27                BPL L774D
7726   00                   BRK
7727   B0 36                BCS L775F
7729   00                   BRK
772A   38                   SEC
772B   4A                   LSR A
772C   00                   BRK
772D   48                   PHA
772E   71 00                ADC ($00),Y
7730   50 C3                BVC L76F5
7732   00                   BRK
7733   90 5F                BCC L7794
7735   01 C0                ORA ($C0,X)
7737   D4                   ???                ;11010100
7738   01 10      L7738     ORA ($10,X)
773A   98         L773A     TYA
773B   02                   ???                ;00000010
773C   70 82                BVS L76C0
773E   03                   ???                ;00000011
773F   70 11                BVS L7752
7741   01 E0                ORA ($E0,X)
7743   22                   ???                ;00100010 '"'
7744   02                   ???                ;00000010
7745   80                   ???                ;10000000
7746   A9 03                LDA #$03
7748   20 30 05             JSR $0530
774B   60                   RTS
774C   3D 08 A0             AND $A008,X
774F   4A                   LSR A
7750   0B                   ???                ;00001011
7751   40                   RTI
7752   42         L7752     ???                ;01000010 'B'
7753   0F                   ???                ;00001111
7754   C0 5C                CPY #$5C
7756   15 40                ORA $40,X
7758   77                   ???                ;01110111 'w'
7759   1B                   ???                ;00011011
775A   C0 91                CPY #$91
775C   21 40                AND ($40,X)
775E   AC 27 C0             LDY $C027
7761   C6 2D                DEC $2D
7763   A0 86                LDY #$86
7765   01 E8                ORA ($E8,X)
7767   6E 03 80             ROR $8003
776A   1A                   ???                ;00011010
776B   06 10                ASL $10
776D   EB                   ???                ;11101011
776E   09 F0                ORA #$F0
7770   7E 0E C0             ROR $C00E,X
7773   5C                   ???                ;01011100 '\'
7774   15 40                ORA $40,X
7776   77                   ???                ;01110111 'w'
7777   1B                   ???                ;00011011
7778   C0 91                CPY #$91
777A   21 40                AND ($40,X)
777C   AC 27 C0             LDY $C027
777F   C6 2D                DEC $2D
7781   40                   RTI
7782   E1 33                SBC ($33,X)
7784   C0 FB                CPY #$FB
7786   39 38 24             AND $2438,Y
7789   18                   CLC
778A   6E D0 77             ROR $77D0
778D   A9 00                LDA #$00
778F   48         L778F     PHA
7790   AA                   TAX
7791   0A                   ASL A
7792   A8                   TAY
7793   BD F5 77             LDA $77F5,X
7796   85 20                STA $20
7798   8D 63 85             STA $8563
779B   B9 E9 77             LDA $77E9,Y
779E   20 8E 84             JSR L848E
77A1   B9 EA 77             LDA $77EA,Y
77A4   20 8E 84             JSR L848E
77A7   A9 BA                LDA #$BA
77A9   20 8E 84             JSR L848E
77AC   BD 42 03             LDA $0342,X
77AF   C9 0A                CMP #$0A
77B1   B0 03                BCS L77B6
77B3   20 89 84             JSR L8489
77B6   BD 42 03   L77B6     LDA $0342,X
77B9   C9 64                CMP #$64
77BB   90 02                BCC L77BF
77BD   A9 63                LDA #$63
77BF   85 9B      L77BF     STA $9B
77C1   A9 00                LDA #$00
77C3   85 9C                STA $9C
77C5   20 85 72             JSR L7285
77C8   20 20 85             JSR L8520
77CB   68                   PLA
77CC   18                   CLC
77CD   69 01                ADC #$01
77CF   A2 00                LDX #$00
77D1   10 04                BPL L77D7
77D3   C9 05                CMP #$05
77D5   F0 0F                BEQ L77E6
77D7   C9 06      L77D7     CMP #$06
77D9   F0 0B                BEQ L77E6
77DB   C9 03                CMP #$03
77DD   D0 B0                BNE L778F
77DF   20 8C 84             JSR L848C
77E2   A9 03                LDA #$03
77E4   D0 A9                BNE L778F
77E6   4C 8C 84   L77E6     JMP L848C
77E9   D3                   ???                ;11010011
77EA   F4                   ???                ;11110100
77EB   C9 D1                CMP #$D1
77ED   C4 F8                CPY $F8
77EF   C3                   ???                ;11000011
77F0   EE CC EB             INC $EBCC
77F3   C8                   INY
77F4   D0 12                BNE L7808
77F6   19 20 12             ORA $1220,Y
77F9   19 20 2C             ORA $2C20,Y
77FC   4E 03 70             LSR $7003
77FF   06 A5                ASL $A5
7801   BA                   TSX
7802   C9 03                CMP #$03
7804   B0 05                BCS L780B
7806   AD 07 FE             LDA $FE07
7809   D0 1E                BNE L7829
780B   A9 09      L780B     LDA #$09
780D   8D 07 FE             STA $FE07
7810   A5 68                LDA $68
7812   F0 03                BEQ L7817
7814   20 2C 78             JSR L782C
7817   A5 64      L7817     LDA $64
7819   F0 03                BEQ L781E
781B   20 4D 78             JSR L784D
781E   A5 66      L781E     LDA $66
7820   F0 07                BEQ L7829
7822   C6 6B                DEC $6B
7824   D0 03                BNE L7829
7826   20 71 78             JSR L7871
7829   4C BE 92   L7829     JMP L92BE
782C   E6 63      L782C     INC $63
782E   A5 63                LDA $63
7830   29 03                AND #$03
7832   85 63                STA $63
7834   18                   CLC
7835   24 38                BIT $38
7837   08                   PHP
7838   A5 63                LDA $63
783A   0A                   ASL A
783B   AA                   TAX
783C   BD 6E D5             LDA $D56E,X
783F   85 3C                STA $3C
7841   BD 6F D5             LDA $D56F,X
7844   85 3D                STA $3D
7846   A2 1E                LDX #$1E
7848   A0 60                LDY #$60
784A   4C F0 78             JMP L78F0
784D   A6 6C      L784D     LDX $6C
784F   E8                   INX
7850   E0 05                CPX #$05
7852   90 02                BCC L7856
7854   A2 00                LDX #$00
7856   86 6C      L7856     STX $6C
7858   18                   CLC
7859   24 38                BIT $38
785B   08                   PHP
785C   A5 6C                LDA $6C
785E   0A                   ASL A
785F   AA                   TAX
7860   BD FE D5             LDA $D5FE,X
7863   85 3C                STA $3C
7865   BD FF D5             LDA $D5FF,X
7868   85 3D                STA $3D
786A   A2 20                LDX #$20
786C   A0 62                LDY #$62
786E   4C F0 78             JMP L78F0
7871   A6 6A      L7871     LDX $6A
7873   E8                   INX
7874   E0 06                CPX #$06
7876   90 02                BCC L787A
7878   A2 00                LDX #$00
787A   86 6A      L787A     STX $6A
787C   BD 9A 78             LDA $789A,X
787F   85 6B                STA $6B
7881   18                   CLC
7882   24 38                BIT $38
7884   08                   PHP
7885   A5 6A                LDA $6A
7887   0A                   ASL A
7888   AA                   TAX
7889   BD E0 D7             LDA $D7E0,X
788C   85 3C                STA $3C
788E   BD E1 D7             LDA $D7E1,X
7891   85 3D                STA $3D
7893   A2 17                LDX #$17
7895   A0 65                LDY #$65
7897   4C F0 78             JMP L78F0
789A   10 10                BPL L78AC
789C   10 01                BPL L789F
789E   01 01                ORA ($01,X)
78A0   A9 00      L78A0     LDA #$00
78A2   85 75                STA $75
78A4   20 81 FB             JSR $FB81
78A7   38                   SEC
78A8   24 18                BIT $18
78AA   08                   PHP
78AB   A9 A4                LDA #$A4
78AD   85 3C                STA $3C
78AF   A9 D8                LDA #$D8
78B1   85 3D                STA $3D
78B3   A2 1B                LDX #$1B
78B5   A0 62                LDY #$62
78B7   4C F0 78             JMP L78F0
78BA   38         L78BA     SEC
78BB   24 18                BIT $18
78BD   08                   PHP
78BE   A9 D6                LDA #$D6
78C0   85 3C                STA $3C
78C2   A9 D8                LDA #$D8
78C4   85 3D                STA $3D
78C6   A2 24                LDX #$24
78C8   A0 63                LDY #$63
78CA   4C F0 78             JMP L78F0
78CD   18                   CLC
78CE   A5 65                LDA $65
78D0   D0 0B                BNE L78DD
78D2   A5 96                LDA $96
78D4   F0 06                BEQ L78DC
78D6   A5 9A                LDA $9A
78D8   49 07                EOR #$07
78DA   F0 01                BEQ L78DD
78DC   38         L78DC     SEC
78DD   08         L78DD     PHP
78DE   A5 0B                LDA $0B
78E0   0A                   ASL A
78E1   AA                   TAX
78E2   BD F0 D6             LDA $D6F0,X
78E5   85 3C                STA $3C
78E7   BD F1 D6             LDA $D6F1,X
78EA   85 3D                STA $3D
78EC   A2 13                LDX #$13
78EE   A0 63                LDY #$63
78F0   28         L78F0     PLP
78F1   B0 03                BCS L78F6
78F3   4C 66 85             JMP L8566
78F6   4C 64 85   L78F6     JMP L8564
78F9   85 B2      L78F9     STA $B2
78FB   A0 31                LDY #$31
78FD   B1 36      L78FD     LDA ($36),Y
78FF   AA                   TAX
7900   BD 73 E5             LDA $E573,X
7903   29 0F                AND #$0F
7905   C5 B2                CMP $B2
7907   D0 13                BNE L791C
7909   88                   DEY
790A   B1 36                LDA ($36),Y
790C   C8                   INY
790D   29 03                AND #$03
790F   C9 01                CMP #$01
7911   F0 06                BEQ L7919
7913   A5 B2                LDA $B2
7915   C9 01                CMP #$01
7917   F0 03                BEQ L791C
7919   8A         L7919     TXA
791A   18                   CLC
791B   60                   RTS
791C   C8         L791C     INY
791D   C8                   INY
791E   C8                   INY
791F   C0 54                CPY #$54
7921   90 DA                BCC L78FD
7923   60                   RTS
7924   BC 73 E4             LDY $E473,X
7927   BD 73 E6             LDA $E673,X
792A   85 57                STA $57
792C   BD 73 E5             LDA $E573,X
792F   48                   PHA
7930   BD 73 E3             LDA $E373,X
7933   AA                   TAX
7934   68                   PLA
7935   60                   RTS
7936   20 20 85   L7936     JSR L8520
7939   20 81 FB             JSR $FB81
793C   A9 0A                LDA #$0A
793E   20 6B 8F             JSR L8F6B
7941   A2 FF                LDX #$FF
7943   86 2F                STX $2F
7945   9A                   TXS
7946   A2 64                LDX #$64
7948   A0 79                LDY #$79
794A   20 CC 7A             JSR L7ACC
794D   A9 0C                LDA #$0C
794F   85 09                STA $09
7951   A9 0F                LDA #$0F
7953   85 0A                STA $0A
7955   A9 00                LDA #$00
7957   85 0C                STA $0C
7959   85 0B                STA $0B
795B   85 5E                STA $5E
795D   85 61                STA $61
795F   85 62                STA $62
7961   4C 00 66             JMP L6600
7964   87                   ???                ;10000111
7965   39 88 D3             AND $D388,Y
7968   EF                   ???                ;11101111
7969   F2                   ???                ;11110010
796A   F2                   ???                ;11110010
796B   F9 AC A0             SBC $A0AC,Y
796E   C2                   ???                ;11000010
796F   F5 E4                SBC $E4,X
7971   FF                   ???                ;11111111
7972   85 F0                STA $F0
7974   98                   TYA
7975   29 6C                AND #$6C
7977   37                   ???                ;00110111 '7'
7978   7D 22 18             ADC $1822,X
797B   0A                   ASL A
797C   33                   ???                ;00110011 '3'
797D   B8                   CLV
797E   52                   ???                ;01010010 'R'
797F   29 04                AND #$04
7981   DF                   ???                ;11011111
7982   0A                   ASL A
7983   0A                   ASL A
7984   89                   ???                ;10001001
7985   8B                   ???                ;10001011
7986   B0 8E                BCS L7916
7988   93                   ???                ;10010011
7989   0A                   ASL A
798A   1E E3 06             ASL $06E3,X
798D   6F                   ???                ;01101111 'o'
798E   08                   PHP
798F   8B                   ???                ;10001011
7990   53                   ???                ;01010011 'S'
7991   3A                   ???                ;00111010 ':'
7992   74                   ???                ;01110100 't'
7993   89                   ???                ;10001001
7994   A2 14                LDX #$14
7996   98                   TYA
7997   55 33                EOR $33,X
7999   B0 00                BCS L799B
799B   09 A9      L799B     ORA #$A9
799D   80                   ???                ;10000000
799E   2C A9 00             BIT $00A9
79A1   8D D3 79             STA $79D3
79A4   4E 0C 7A             LSR $7A0C
79A7   AD 62 10             LDA $1062
79AA   AE 63 10             LDX $1063
79AD   A4 08                LDY $08
79AF   D0 06                BNE L79B7
79B1   AD 55 10             LDA $1055
79B4   AE 56 10             LDX $1056
79B7   18         L79B7     CLC
79B8   69 40                ADC #$40
79BA   85 12                STA $12
79BC   8A                   TXA
79BD   69 10                ADC #$10
79BF   85 13                STA $13
79C1   A0 00                LDY #$00
79C3   B1 12                LDA ($12),Y
79C5   F0 41                BEQ L7A08
79C7   AA                   TAX
79C8   E6 12                INC $12
79CA   D0 02                BNE L79CE
79CC   E6 13                INC $13
79CE   A0 00      L79CE     LDY #$00
79D0   B1 12                LDA ($12),Y
79D2   49 00                EOR #$00
79D4   C9 7F                CMP #$7F
79D6   F0 04                BEQ L79DC
79D8   C5 09                CMP $09
79DA   D0 1E                BNE L79FA
79DC   C8         L79DC     INY
79DD   B1 12                LDA ($12),Y
79DF   C9 FF                CMP #$FF
79E1   F0 04                BEQ L79E7
79E3   C5 0A                CMP $0A
79E5   D0 13                BNE L79FA
79E7   A5 13      L79E7     LDA $13
79E9   48                   PHA
79EA   A5 12                LDA $12
79EC   48                   PHA
79ED   8A                   TXA
79EE   48                   PHA
79EF   20 0D 7A             JSR L7A0D
79F2   68                   PLA
79F3   AA                   TAX
79F4   68                   PLA
79F5   85 12                STA $12
79F7   68                   PLA
79F8   85 13                STA $13
79FA   18         L79FA     CLC
79FB   A5 12                LDA $12
79FD   69 04                ADC #$04
79FF   85 12                STA $12
7A01   90 02                BCC L7A05
7A03   E6 13                INC $13
7A05   CA         L7A05     DEX
7A06   D0 C6                BNE L79CE
7A08   0E 0C 7A   L7A08     ASL $7A0C
7A0B   60                   RTS
7A0C   00                   BRK
7A0D   A0 02      L7A0D     LDY #$02
7A0F   18                   CLC
7A10   B1 12                LDA ($12),Y
7A12   69 40                ADC #$40
7A14   85 D1                STA $D1
7A16   C8                   INY
7A17   B1 12                LDA ($12),Y
7A19   69 10                ADC #$10
7A1B   85 D2                STA $D2
7A1D   20 E9 7A   L7A1D     JSR L7AE9
7A20   C9 FF                CMP #$FF
7A22   F0 19                BEQ L7A3D
7A24   0A         L7A24     ASL A
7A25   A8                   TAY
7A26   6E E8 7A             ROR $7AE8
7A29   B9 3E 7A             LDA $7A3E,Y
7A2C   8D 36 7A             STA $7A36
7A2F   B9 3F 7A             LDA $7A3F,Y
7A32   8D 37 7A             STA $7A37
7A35   20 FF FF             JSR $FFFF
7A38   2C E8 7A             BIT $7AE8
7A3B   30 E0                BMI L7A1D
7A3D   60         L7A3D     RTS
7A3E   F4                   ???                ;11110100
7A3F   7A                   ???                ;01111010 'z'
7A40   F7                   ???                ;11110111
7A41   7A                   ???                ;01111010 'z'
7A42   7F                   ???                ;01111111
7A43   7B                   ???                ;01111011 '{'
7A44   AF                   ???                ;10101111
7A45   7B                   ???                ;01111011 '{'
7A46   F5 7B                SBC $7B,X
7A48   3A                   ???                ;00111010 ':'
7A49   7C                   ???                ;01111100 '|'
7A4A   4B                   ???                ;01001011 'K'
7A4B   7C                   ???                ;01111100 '|'
7A4C   61 7C                ADC ($7C,X)
7A4E   68                   PLA
7A4F   7C                   ???                ;01111100 '|'
7A50   0D 6F 73             ORA $736F
7A53   86 71                STX $71
7A55   7C                   ???                ;01111100 '|'
7A56   6E 7C AD             ROR $AD7C
7A59   7C                   ???                ;01111100 '|'
7A5A   F0 7C                BEQ L7AD8
7A5C   F2                   ???                ;11110010
7A5D   7C                   ???                ;01111100 '|'
7A5E   16 7D                ASL $7D,X
7A60   1E 7D 3D             ASL $3D7D,X
7A63   7C                   ???                ;01111100 '|'
7A64   7A                   ???                ;01111010 'z'
7A65   81 25                STA ($25,X)
7A67   7D 37 7D             ADC $7D37,X
7A6A   C0 7D                CPY #$7D
7A6C   C3                   ???                ;11000011
7A6D   7D EF 7D             ADC $7DEF,X
7A70   05 7E                ORA $7E
7A72   97                   ???                ;10010111
7A73   7C                   ???                ;01111100 '|'
7A74   F3                   ???                ;11110011
7A75   7B                   ???                ;01111011 '{'
7A76   00                   BRK
7A77   7E 2F 7E             ROR $7E2F,X
7A7A   38                   SEC
7A7B   7E 5F 7E             ROR $7E5F,X
7A7E   69 7E                ADC #$7E
7A80   92                   ???                ;10010010
7A81   7E 9C 7E             ROR $7E9C,X
7A84   A6 7E                LDX $7E
7A86   EE 7E 18             INC $187E
7A89   7F                   ???                ;01111111
7A8A   28                   PLP
7A8B   7F                   ???                ;01111111
7A8C   4C 7F 65             JMP $657F
7A8F   7F                   ???                ;01111111
7A90   68                   PLA
7A91   7F                   ???                ;01111111
7A92   84 7F                STY $7F
7A94   1A                   ???                ;00011010
7A95   73                   ???                ;01110011 's'
7A96   8A                   TXA
7A97   7F                   ???                ;01111111
7A98   B4 7F                LDY $7F,X
7A9A   CE 7F DC             DEC $DC7F
7A9D   7F                   ???                ;01111111
7A9E   17                   ???                ;00010111
7A9F   80                   ???                ;10000000
7AA0   40                   RTI
7AA1   80                   ???                ;10000000
7AA2   50 80                BVC L7A24
7AA4   60                   RTS
7AA5   80                   ???                ;10000000
7AA6   70 80                BVS L7A28
7AA8   77                   ???                ;01110111 'w'
7AA9   80                   ???                ;10000000
7AAA   85 80                STA $80
7AAC   90 80                BCC L7A2E
7AAE   95 80                STA $80,X
7AB0   B7                   ???                ;10110111
7AB1   80                   ???                ;10000000
7AB2   24 7C                BIT $7C
7AB4   FB                   ???                ;11111011
7AB5   7D E6 80             ADC $80E6,X
7AB8   FF                   ???                ;11111111
7AB9   80                   ???                ;10000000
7ABA   02                   ???                ;00000010
7ABB   81 23                STA ($23,X)
7ABD   81 25                STA ($25,X)
7ABF   81 56                STA ($56,X)
7AC1   81 87                STA ($87,X)
7AC3   81 96                STA ($96,X)
7AC5   81 BF                STA ($BF,X)
7AC7   81 27                STA ($27,X)
7AC9   7C                   ???                ;01111100 '|'
7ACA   AC 7B A5             LDY $A57B
7ACD   D1 48                CMP ($48),Y
7ACF   A5 D2                LDA $D2
7AD1   48                   PHA
7AD2   AD E8 7A             LDA $7AE8
7AD5   48                   PHA
7AD6   86 D1                STX $D1
7AD8   84 D2      L7AD8     STY $D2
7ADA   20 1D 7A             JSR L7A1D
7ADD   68                   PLA
7ADE   8D E8 7A             STA $7AE8
7AE1   68                   PLA
7AE2   85 D2                STA $D2
7AE4   68                   PLA
7AE5   85 D1                STA $D1
7AE7   60                   RTS
7AE8   00                   BRK
7AE9   A0 00      L7AE9     LDY #$00
7AEB   B1 D1                LDA ($D1),Y
7AED   E6 D1                INC $D1
7AEF   D0 02                BNE L7AF3
7AF1   E6 D2                INC $D2
7AF3   60         L7AF3     RTS
7AF4   A9 00                LDA #$00
7AF6   2C A9 10             BIT $10A9
7AF9   A6 2C                LDX $2C
7AFB   F0 01                BEQ L7AFE
7AFD   60                   RTS
7AFE   E6 2C      L7AFE     INC $2C
7B00   48                   PHA
7B01   4D 50 10             EOR $1050
7B04   29 10                AND #$10
7B06   85 4F                STA $4F
7B08   20 07 74             JSR L7407
7B0B   F4                   ???                ;11110100
7B0C   D2                   ???                ;11010010
7B0D   68                   PLA
7B0E   98                   TYA
7B0F   22                   ???                ;00100010 '"'
7B10   89                   ???                ;10001001
7B11   83                   ???                ;10000011
7B12   29 89                AND #$89
7B14   51 90                EOR ($90),Y
7B16   52                   ???                ;01010010 'R'
7B17   68                   PLA
7B18   9B                   ???                ;10011011
7B19   61 43                ADC ($43,X)
7B1B   D4                   ???                ;11010100
7B1C   E4 07                CPX $07
7B1E   FA                   ???                ;11111010
7B1F   52                   ???                ;01010010 'R'
7B20   1F                   ???                ;00011111
7B21   D4                   ???                ;11010100
7B22   AF                   ???                ;10101111
7B23   B3                   ???                ;10110011
7B24   BF                   ???                ;10111111
7B25   AE 03 E2             LDX $E203
7B28   BC 37 7D             LDY $7D37,X
7B2B   03                   ???                ;00000011
7B2C   65 49                ADC $49
7B2E   21 9B                AND ($9B,X)
7B30   C3                   ???                ;11000011
7B31   31 2C                AND ($2C),Y
7B33   C1 9A                CMP ($9A,X)
7B35   4C DF F1             JMP $F1DF
7B38   DE 80 20             DEC $2080,X
7B3B   10 7E                BPL L7BBB
7B3D   90 02                BCC L7B41
7B3F   68                   PLA
7B40   60                   RTS
7B41   20 00 7E   L7B41     JSR L7E00
7B44   68                   PLA
7B45   F0 1D                BEQ L7B64
7B47   E6 0D                INC $0D
7B49   A6 0D      L7B49     LDX $0D
7B4B   BD 52 10             LDA $1052,X
7B4E   85 35                STA $35
7B50   18                   CLC
7B51   A5 09                LDA $09
7B53   6D 61 10             ADC $1061
7B56   85 09                STA $09
7B58   18                   CLC
7B59   A5 0A                LDA $0A
7B5B   6D 60 10             ADC $1060
7B5E   85 0A                STA $0A
7B60   38                   SEC
7B61   4C 77 68             JMP L6877
7B64   C6 0D      L7B64     DEC $0D
7B66   30 03                BMI L7B6B
7B68   4C 49 7B             JMP L7B49
7B6B   AD 5A 10   L7B6B     LDA $105A
7B6E   85 09                STA $09
7B70   AD 5B 10             LDA $105B
7B73   85 0A                STA $0A
7B75   AD 5C 10             LDA $105C
7B78   85 0C      L7B78     STA $0C
7B7A   A9 00                LDA #$00
7B7C   4C 00 66             JMP L6600
7B7F   46 D3                LSR $D3
7B81   20 E9 7A             JSR L7AE9
7B84   18                   CLC
7B85   69 0D                ADC #$0D
7B87   A6 08                LDX $08
7B89   F0 02                BEQ L7B8D
7B8B   69 0A                ADC #$0A
7B8D   85 35      L7B8D     STA $35
7B8F   20 8D 66             JSR L668D
7B92   A6 08                LDX $08
7B94   D0 06                BNE L7B9C
7B96   20 00 A8             JSR $A800
7B99   4C 9F 7B             JMP L7B9F
7B9C   20 00 AD   L7B9C     JSR $AD00
7B9F   E6 2D      L7B9F     INC $2D
7BA1   A9 40                LDA #$40
7BA3   85 38                STA $38
7BA5   A9 10                LDA #$10
7BA7   85 39                STA $39
7BA9   4C 51 75             JMP L7551
7BAC   20 FD 81             JSR L81FD
7BAF   20 00 7E             JSR L7E00
7BB2   20 E9 7A             JSR L7AE9
7BB5   85 09                STA $09
7BB7   20 E9 7A             JSR L7AE9
7BBA   85 0A                STA $0A
7BBC   20 E9 7A             JSR L7AE9
7BBF   A6 08                LDX $08
7BC1   D0 15                BNE L7BD8
7BC3   A8                   TAY
7BC4   30 09                BMI L7BCF
7BC6   C5 0C                CMP $0C
7BC8   F0 23                BEQ L7BED
7BCA   85 0C                STA $0C
7BCC   4C 2F 66             JMP L662F
7BCF   29 7F      L7BCF     AND #$7F
7BD1   85 35                STA $35
7BD3   A9 01                LDA #$01
7BD5   4C 00 66             JMP L6600
7BD8   A8         L7BD8     TAY
7BD9   30 0D                BMI L7BE8
7BDB   A6 0D                LDX $0D
7BDD   DD 52 10             CMP $1052,X
7BE0   F0 0B                BEQ L7BED
7BE2   85 35                STA $35
7BE4   18                   CLC
7BE5   4C 77 68             JMP L6877
7BE8   29 7F      L7BE8     AND #$7F
7BEA   4C 78 7B             JMP L7B78
7BED   A2 FF      L7BED     LDX #$FF
7BEF   9A                   TXS
7BF0   4C 00 9B             JMP $9B00
7BF3   E6 D4                INC $D4
7BF5   20 E9 7A             JSR L7AE9
7BF8   AA                   TAX
7BF9   CA                   DEX
7BFA   86 89                STX $89
7BFC   8A                   TXA
7BFD   48         L7BFD     PHA
7BFE   AA                   TAX
7BFF   20 DF F9             JSR $F9DF
7C02   20 E9 7A             JSR L7AE9
7C05   91 49                STA ($49),Y
7C07   20 E9 7A             JSR L7AE9
7C0A   A0 15                LDY #$15
7C0C   91 49                STA ($49),Y
7C0E   68                   PLA
7C0F   38                   SEC
7C10   E9 01                SBC #$01
7C12   10 E9                BPL L7BFD
7C14   E6 62                INC $62
7C16   A9 00                LDA #$00
7C18   85 61                STA $61
7C1A   A9 FE                LDA #$FE
7C1C   20 00 66             JSR L6600
7C1F   A5 8A                LDA $8A
7C21   4C 83 7C             JMP L7C83
7C24   20 73 86             JSR L8673
7C27   20 E9 7A             JSR L7AE9
7C2A   18                   CLC
7C2B   69 40                ADC #$40
7C2D   AA                   TAX
7C2E   20 E9 7A             JSR L7AE9
7C31   69 10                ADC #$10
7C33   A8                   TAY
7C34   20 19 74             JSR L7419
7C37   E6 2D                INC $2D
7C39   60                   RTS
7C3A   20 73 86             JSR L8673
7C3D   A6 D1                LDX $D1
7C3F   A4 D2                LDY $D2
7C41   20 19 74             JSR L7419
7C44   86 D1                STX $D1
7C46   84 D2                STY $D2
7C48   E6 2D                INC $2D
7C4A   60                   RTS
7C4B   20 E9 7A             JSR L7AE9
7C4E   18                   CLC
7C4F   69 40                ADC #$40
7C51   85 12                STA $12
7C53   20 E9 7A             JSR L7AE9
7C56   69 10                ADC #$10
7C58   85 13                STA $13
7C5A   A0 00                LDY #$00
7C5C   A9 FF                LDA #$FF
7C5E   91 12                STA ($12),Y
7C60   60                   RTS
7C61   20 E9 7A             JSR L7AE9
7C64   AA                   TAX
7C65   4C C9 68             JMP L68C9
7C68   20 EF 80             JSR L80EF
7C6B   4C 51 75             JMP L7551
7C6E   A9 FF                LDA #$FF
7C70   2C A9 00             BIT $00A9
7C73   85 12                STA $12
7C75   20 09 7D             JSR L7D09
7C78   B9 C0 00             LDA $00C0,Y
7C7B   45 12                EOR $12
7C7D   3D 58 CD             AND $CD58,X
7C80   DD 58 CD             CMP $CD58,X
7C83   F0 0D      L7C83     BEQ L7C92
7C85   2C E8 7A   L7C85     BIT $7AE8
7C88   10 1D                BPL L7CA7
7C8A   20 E9 7A             JSR L7AE9
7C8D   4C E9 7A             JMP L7AE9
7C90   F0 F3      L7C90     BEQ L7C85
7C92   2C E8 7A   L7C92     BIT $7AE8
7C95   10 11                BPL L7CA8
7C97   20 E9 7A             JSR L7AE9
7C9A   18                   CLC
7C9B   69 40                ADC #$40
7C9D   AA                   TAX
7C9E   20 E9 7A             JSR L7AE9
7CA1   69 10                ADC #$10
7CA3   85 D2                STA $D2
7CA5   86 D1                STX $D1
7CA7   60         L7CA7     RTS
7CA8   38         L7CA8     SEC
7CA9   6E E8 7A             ROR $7AE8
7CAC   60                   RTS
7CAD   20 E9 7A             JSR L7AE9
7CB0   48                   PHA
7CB1   20 E9 7A             JSR L7AE9
7CB4   AA                   TAX
7CB5   20 E9 7A             JSR L7AE9
7CB8   85 12                STA $12
7CBA   68                   PLA
7CBB   A8                   TAY
7CBC   A5 12                LDA $12
7CBE   48                   PHA
7CBF   20 6E A2             JSR $A26E
7CC2   68                   PLA
7CC3   48                   PHA
7CC4   29 0F                AND #$0F
7CC6   85 12                STA $12
7CC8   0A                   ASL A
7CC9   0A                   ASL A
7CCA   0A                   ASL A
7CCB   0A                   ASL A
7CCC   05 12                ORA $12
7CCE   85 12                STA $12
7CD0   68                   PLA
7CD1   4A                   LSR A
7CD2   4A                   LSR A
7CD3   4A                   LSR A
7CD4   4A                   LSR A
7CD5   AA                   TAX
7CD6   98                   TYA
7CD7   18                   CLC
7CD8   7D E8 7C             ADC $7CE8,X
7CDB   A8                   TAY
7CDC   B1 42                LDA ($42),Y
7CDE   45 12                EOR $12
7CE0   3D EC 7C             AND $7CEC,X
7CE3   51 42                EOR ($42),Y
7CE5   91 42                STA ($42),Y
7CE7   60                   RTS
7CE8   FF                   ???                ;11111111
7CE9   FF                   ???                ;11111111
7CEA   00                   BRK
7CEB   00                   BRK
7CEC   F0 0F                BEQ L7CFD
7CEE   F0 0F                BEQ L7CFF
7CF0   38                   SEC
7CF1   24 18                BIT $18
7CF3   08                   PHP
7CF4   20 09 7D             JSR L7D09
7CF7   BD 58 CD             LDA $CD58,X
7CFA   49 FF                EOR #$FF
7CFC   39 C0 00             AND $00C0,Y
7CFF   28         L7CFF     PLP
7D00   90 03                BCC L7D05
7D02   1D 58 CD             ORA $CD58,X
7D05   99 C0 00   L7D05     STA $00C0,Y
7D08   60                   RTS
7D09   20 E9 7A   L7D09     JSR L7AE9
7D0C   48                   PHA
7D0D   29 07                AND #$07
7D0F   AA                   TAX
7D10   68                   PLA
7D11   4A                   LSR A
7D12   4A                   LSR A
7D13   4A         L7D13     LSR A
7D14   A8                   TAY
7D15   60                   RTS
7D16   20 E9 7A             JSR L7AE9
7D19   45 58                EOR $58
7D1B   4C 83 7C             JMP L7C83
7D1E   38                   SEC
7D1F   6E 0C 7A             ROR $7A0C
7D22   4C 81 FB             JMP $FB81
7D25   20 E9 7A   L7D25     JSR L7AE9
7D28   85 12                STA $12
7D2A   A4 D0                LDY $D0
7D2C   B1 36                LDA ($36),Y
7D2E   4A                   LSR A
7D2F   4A                   LSR A
7D30   29 0F                AND #$0F
7D32   C5 12                CMP $12
7D34   4C 83 7C             JMP L7C83
7D37   20 E9 7A             JSR L7AE9
7D3A   85 55                STA $55
7D3C   20 E9 7A             JSR L7AE9
7D3F   85 53                STA $53
7D41   20 E9 7A             JSR L7AE9
7D44   85 56                STA $56
7D46   20 07 74   L7D46     JSR L7407
7D49   F5 92                SBC $92,X
7D4B   F0 D8                BEQ L7D25
7D4D   4E 9C 83             LSR $839C
7D50   37                   ???                ;00110111 '7'
7D51   85 06                STA $06
7D53   98                   TYA
7D54   66 93                ROR $93
7D56   04                   ???                ;00000100
7D57   00                   BRK
7D58   20 E6 6F             JSR L6FE6
7D5B   A9 BF                LDA #$BF
7D5D   20 8E 84             JSR L848E
7D60   20 37 8F             JSR L8F37
7D63   B0 34                BCS L7D99
7D65   8A                   TXA
7D66   4A                   LSR A
7D67   20 5B 71             JSR L715B
7D6A   90 33                BCC L7D9F
7D6C   20 07 74             JSR L7407
7D6F   F4                   ???                ;11110100
7D70   9F                   ???                ;10011111
7D71   18                   CLC
7D72   DC                   ???                ;11011100
7D73   23                   ???                ;00100011 '#'
7D74   A4 C2                LDY $C2
7D76   00                   BRK
7D77   A6 42                LDX $42
7D79   A4 43                LDY $43
7D7B   20 1C 75             JSR L751C
7D7E   20 0A 74             JSR L740A
7D81   09 04                ORA #$04
7D83   ED 4C 24             SBC $244C
7D86   14                   ???                ;00010100
7D87   63                   ???                ;01100011 'c'
7D88   70 89                BVS L7D13
7D8A   D7                   ???                ;11010111
7D8B   0B                   ???                ;00001011
7D8C   5F                   ???                ;01011111 '_'
7D8D   13                   ???                ;00010011
7D8E   05 53                ORA $53
7D90   33                   ???                ;00110011 '3'
7D91   65 80                ADC $80
7D93   00                   BRK
7D94   20 0D 6F             JSR L6F0D
7D97   B0 AD                BCS L7D46
7D99   20 73 86   L7D99     JSR L8673
7D9C   4C 85 7C             JMP L7C85
7D9F   20 73 86   L7D9F     JSR L8673
7DA2   A6 42                LDX $42
7DA4   A4 43                LDY $43
7DA6   20 1C 75             JSR L751C
7DA9   20 0A 74             JSR L740A
7DAC   0A                   ASL A
7DAD   1F                   ???                ;00011111
7DAE   30 CD                BMI L7D7D
7DB0   26 08                ROL $08
7DB2   00                   BRK
7DB3   20 E6 6F             JSR L6FE6
7DB6   A9 AE                LDA #$AE
7DB8   20 8E 84             JSR L848E
7DBB   E6 2D                INC $2D
7DBD   4C 92 7C             JMP L7C92
7DC0   A9 00                LDA #$00
7DC2   2C A9 80             BIT $80A9
7DC5   85 93                STA $93
7DC7   20 E9 7A             JSR L7AE9
7DCA   85 B2                STA $B2
7DCC   20 16 6F             JSR L6F16
7DCF   D9 7D A9             CMP $A97D,Y
7DD2   00                   BRK
7DD3   6A                   ROR A
7DD4   45 93                EOR $93
7DD6   4C 83 7C             JMP L7C83
7DD9   F0 0F                BEQ L7DEA
7DDB   A0 31                LDY #$31
7DDD   B1 12      L7DDD     LDA ($12),Y
7DDF   C5 B2                CMP $B2
7DE1   F0 08                BEQ L7DEB
7DE3   C8                   INY
7DE4   C8                   INY
7DE5   C8                   INY
7DE6   C0 54                CPY #$54
7DE8   90 F3                BCC L7DDD
7DEA   60         L7DEA     RTS
7DEB   68         L7DEB     PLA
7DEC   68                   PLA
7DED   18                   CLC
7DEE   60                   RTS
7DEF   A5 2C                LDA $2C
7DF1   D0 05                BNE L7DF8
7DF3   E6 2C                INC $2C
7DF5   4C 92 7C             JMP L7C92
7DF8   4C 85 7C   L7DF8     JMP L7C85
7DFB   A5 31                LDA $31
7DFD   4C 90 7C             JMP L7C90
7E00   A9 00      L7E00     LDA #$00
7E02   85 2C                STA $2C
7E04   60                   RTS
7E05   20 10 7E             JSR L7E10
7E08   90 03                BCC L7E0D
7E0A   4C 85 7C             JMP L7C85
7E0D   4C 92 7C   L7E0D     JMP L7C92
7E10   20 0A 74   L7E10     JSR L740A
7E13   FE 06 97             INC $9706,X
7E16   7F                   ???                ;01111111
7E17   2B                   ???                ;00101011 '+'
7E18   C0 20                CPY #$20
7E1A   0F                   ???                ;00001111
7E1B   8B                   ???                ;10001011
7E1C   42                   ???                ;01000010 'B'
7E1D   20 CE 25             JSR $25CE
7E20   7E D9 2A             ROR $2AD9,X
7E23   7E FF 20             ROR $20FF,X
7E26   73                   ???                ;01110011 's'
7E27   86 38                STX $38
7E29   60                   RTS
7E2A   20 73 86             JSR L8673
7E2D   18                   CLC
7E2E   60                   RTS
7E2F   20 F8 8D             JSR L8DF8
7E32   20 00 8E             JSR L8E00
7E35   4C ED 7B             JMP L7BED
7E38   20 E9 7A             JSR L7AE9
7E3B   85 B2                STA $B2
7E3D   20 16 6F             JSR L6F16
7E40   43                   ???                ;01000011 'C'
7E41   7E 60 F0             ROR $F060,X
7E44   0F                   ???                ;00001111
7E45   A0 31                LDY #$31
7E47   B1 12      L7E47     LDA ($12),Y
7E49   C5 B2                CMP $B2
7E4B   F0 08                BEQ L7E55
7E4D   C8                   INY
7E4E   C8                   INY
7E4F   C8                   INY
7E50   C0 54                CPY #$54
7E52   90 F3                BCC L7E47
7E54   60                   RTS
7E55   88         L7E55     DEY
7E56   20 89 7E             JSR L7E89
7E59   20 F5 70             JSR L70F5
7E5C   68                   PLA
7E5D   68                   PLA
7E5E   60                   RTS
7E5F   20 75 7E             JSR L7E75
7E62   F6 D5                INC $D5,X
7E64   D0 02                BNE L7E68
7E66   F6 D6                INC $D6,X
7E68   60         L7E68     RTS
7E69   20 75 7E             JSR L7E75
7E6C   B5 D5                LDA $D5,X
7E6E   D0 02                BNE L7E72
7E70   D6 D6                DEC $D6,X
7E72   D6 D5      L7E72     DEC $D5,X
7E74   60                   RTS
7E75   20 E9 7A   L7E75     JSR L7AE9
7E78   0A                   ASL A
7E79   AA                   TAX
7E7A   60                   RTS
7E7B   20 75 7E   L7E7B     JSR L7E75
7E7E   20 E9 7A             JSR L7AE9
7E81   85 12                STA $12
7E83   20 E9 7A             JSR L7AE9
7E86   85 13                STA $13
7E88   60                   RTS
7E89   A5 12      L7E89     LDA $12
7E8B   85 36                STA $36
7E8D   A5 13                LDA $13
7E8F   85 37                STA $37
7E91   60                   RTS
7E92   20 75 7E             JSR L7E75
7E95   B5 D5                LDA $D5,X
7E97   15 D6                ORA $D6,X
7E99   4C 83 7C             JMP L7C83
7E9C   20 75 7E             JSR L7E75
7E9F   B5 D5                LDA $D5,X
7EA1   15 D6                ORA $D6,X
7EA3   4C 90 7C             JMP L7C90
7EA6   20 E9 7A             JSR L7AE9
7EA9   85 93                STA $93
7EAB   20 E9 7A             JSR L7AE9
7EAE   85 94                STA $94
7EB0   20 16 6F             JSR L6F16
7EB3   BD 7E 20             LDA $207E,X
7EB6   5E 6F 90             LSR $906F,X
7EB9   33                   ???                ;00110011 '3'
7EBA   4C 36 79             JMP L7936
7EBD   F0 2E                BEQ L7EED
7EBF   8A                   TXA
7EC0   48                   PHA
7EC1   A0 21                LDY #$21
7EC3   38                   SEC
7EC4   B1 12                LDA ($12),Y
7EC6   E5 93                SBC $93
7EC8   91 12                STA ($12),Y
7ECA   AA                   TAX
7ECB   C8                   INY
7ECC   B1 12                LDA ($12),Y
7ECE   E5 94                SBC $94
7ED0   91 12                STA ($12),Y
7ED2   90 05                BCC L7ED9
7ED4   D0 12                BNE L7EE8
7ED6   8A                   TXA
7ED7   D0 0F                BNE L7EE8
7ED9   A9 00      L7ED9     LDA #$00
7EDB   91 12                STA ($12),Y
7EDD   88                   DEY
7EDE   91 12                STA ($12),Y
7EE0   A0 2D                LDY #$2D
7EE2   B1 12                LDA ($12),Y
7EE4   09 04                ORA #$04
7EE6   91 12                STA ($12),Y
7EE8   68         L7EE8     PLA
7EE9   4A                   LSR A
7EEA   4C 93 FB             JMP $FB93
7EED   60         L7EED     RTS
7EEE   A2 00                LDX #$00
7EF0   20 E9 7A   L7EF0     JSR L7AE9
7EF3   95 9B                STA $9B,X
7EF5   E8                   INX
7EF6   E0 04                CPX #$04
7EF8   90 F6                BCC L7EF0
7EFA   A5 09                LDA $09
7EFC   C5 9B                CMP $9B
7EFE   90 15                BCC L7F15
7F00   C5 9D                CMP $9D
7F02   F0 02                BEQ L7F06
7F04   B0 0F                BCS L7F15
7F06   A5 0A      L7F06     LDA $0A
7F08   C5 9C                CMP $9C
7F0A   90 09                BCC L7F15
7F0C   C5 9E                CMP $9E
7F0E   F0 02                BEQ L7F12
7F10   B0 03                BCS L7F15
7F12   4C 92 7C   L7F12     JMP L7C92
7F15   4C 85 7C   L7F15     JMP L7C85
7F18   20 E9 7A             JSR L7AE9
7F1B   0A                   ASL A
7F1C   0A                   ASL A
7F1D   A4 D0                LDY $D0
7F1F   51 36                EOR ($36),Y
7F21   29 3C                AND #$3C
7F23   51 36                EOR ($36),Y
7F25   91 36                STA ($36),Y
7F27   60                   RTS
7F28   20 E9 7A             JSR L7AE9
7F2B   85 12                STA $12
7F2D   A4 D0                LDY $D0
7F2F   C8                   INY
7F30   B1 36                LDA ($36),Y
7F32   AA                   TAX
7F33   C8                   INY
7F34   B1 36                LDA ($36),Y
7F36   18                   CLC
7F37   65 12                ADC $12
7F39   B0 04                BCS L7F3F
7F3B   C9 FE                CMP #$FE
7F3D   90 02                BCC L7F41
7F3F   A9 FE      L7F3F     LDA #$FE
7F41   DD 73 E2   L7F41     CMP $E273,X
7F44   90 03                BCC L7F49
7F46   BD 73 E2             LDA $E273,X
7F49   91 36      L7F49     STA ($36),Y
7F4B   60                   RTS
7F4C   20 E9 7A             JSR L7AE9
7F4F   85 12                STA $12
7F51   A4 D0                LDY $D0
7F53   C8                   INY
7F54   C8                   INY
7F55   B1 36                LDA ($36),Y
7F57   C9 FF                CMP #$FF
7F59   F0 07                BEQ L7F62
7F5B   38                   SEC
7F5C   E5 12                SBC $12
7F5E   B0 02                BCS L7F62
7F60   A9 00                LDA #$00
7F62   91 36      L7F62     STA ($36),Y
7F64   60                   RTS
7F65   A9 79                LDA #$79
7F67   2C A9 F9             BIT $F9A9
7F6A   8D 77 7F             STA $7F77
7F6D   0A                   ASL A
7F6E   08                   PHP
7F6F   20 7B 7E             JSR L7E7B
7F72   A0 00                LDY #$00
7F74   28                   PLP
7F75   B5 D5      L7F75     LDA $D5,X
7F77   79 12 00             ADC $0012,Y
7F7A   95 D5                STA $D5,X
7F7C   E8                   INX
7F7D   C8                   INY
7F7E   98                   TYA
7F7F   49 02                EOR #$02
7F81   D0 F2                BNE L7F75
7F83   60                   RTS
7F84   20 E9 7A             JSR L7AE9
7F87   85 0B                STA $0B
7F89   60                   RTS
7F8A   20 EF 80             JSR L80EF
7F8D   A2 00                LDX #$00
7F8F   86 12      L7F8F     STX $12
7F91   A0 00                LDY #$00
7F93   B1 38      L7F93     LDA ($38),Y
7F95   C9 FF                CMP #$FF
7F97   F0 09                BEQ L7FA2
7F99   DD 00 02             CMP $0200,X
7F9C   D0 07                BNE L7FA5
7F9E   E8                   INX
7F9F   C8                   INY
7FA0   D0 F1                BNE L7F93
7FA2   4C 92 7C   L7FA2     JMP L7C92
7FA5   A6 12      L7FA5     LDX $12
7FA7   BD 00 02             LDA $0200,X
7FAA   C9 FF                CMP #$FF
7FAC   F0 03                BEQ L7FB1
7FAE   E8                   INX
7FAF   D0 DE                BNE L7F8F
7FB1   4C 85 7C   L7FB1     JMP L7C85
7FB4   20 B7 73             JSR L73B7
7FB7   20 75 7E             JSR L7E75
7FBA   A5 AD                LDA $AD
7FBC   05 AE                ORA $AE
7FBE   F0 05                BEQ L7FC5
7FC0   A9 FF                LDA #$FF
7FC2   A8                   TAY
7FC3   D0 04                BNE L7FC9
7FC5   A5 AB      L7FC5     LDA $AB
7FC7   A4 AC                LDY $AC
7FC9   95 D5      L7FC9     STA $D5,X
7FCB   94 D6                STY $D6,X
7FCD   60                   RTS
7FCE   20 37 8F             JSR L8F37
7FD1   B0 06                BCS L7FD9
7FD3   84 36                STY $36
7FD5   85 37                STA $37
7FD7   90 3B                BCC L8014
7FD9   4C 85 7C   L7FD9     JMP L7C85
7FDC   20 75 7E             JSR L7E75
7FDF   B5 D5                LDA $D5,X
7FE1   85 AB                STA $AB
7FE3   B5 D6                LDA $D6,X
7FE5   85 AC                STA $AC
7FE7   A9 00                LDA #$00
7FE9   85 AD                STA $AD
7FEB   85 AE                STA $AE
7FED   A0 19                LDY #$19
7FEF   20 AF 71             JSR L71AF
7FF2   90 1B                BCC L800F
7FF4   20 07 74             JSR L7407
7FF7   F5 DF                SBC $DF,X
7FF9   40                   RTI
7FFA   95 EE                STA $EE,X
7FFC   D4                   ???                ;11010100
7FFD   C2                   ???                ;11000010
7FFE   91 54                STA ($54),Y
8000   C1 33                CMP ($33,X)
8002   9F                   ???                ;10011111
8003   44                   ???                ;01000100 'D'
8004   24 28                BIT $28
8006   7B                   ???                ;01111011 '{'
8007   0B                   ???                ;00001011
8008   80                   ???                ;10000000
8009   00                   BRK
800A   20 0D 6F             JSR L6F0D
800D   B0 CA                BCS L7FD9
800F   A0 19      L800F     LDY #$19
8011   20 08 72             JSR L7208
8014   4C 92 7C   L8014     JMP L7C92
8017   20 75 7E             JSR L7E75
801A   A0 19                LDY #$19
801C   18                   CLC
801D   B1 36      L801D     LDA ($36),Y
801F   75 D5                ADC $D5,X
8021   91 36                STA ($36),Y
8023   E8                   INX
8024   C8                   INY
8025   98                   TYA
8026   49 1B                EOR #$1B
8028   D0 F3                BNE L801D
802A   71 36      L802A     ADC ($36),Y
802C   91 36                STA ($36),Y
802E   C8                   INY
802F   98                   TYA
8030   49 1C                EOR #$1C
8032   F0 F6                BEQ L802A
8034   90 09                BCC L803F
8036   A9 FF                LDA #$FF
8038   88         L8038     DEY
8039   91 36                STA ($36),Y
803B   C0 19                CPY #$19
803D   D0 F9                BNE L8038
803F   60         L803F     RTS
8040   20 7B 7E             JSR L7E7B
8043   B5 D5                LDA $D5,X
8045   C5 12                CMP $12
8047   B5 D6                LDA $D6,X
8049   E5 13                SBC $13
804B   90 20                BCC L806D
804D   4C 85 7C   L804D     JMP L7C85
8050   20 7B 7E             JSR L7E7B
8053   B5 D5                LDA $D5,X
8055   C5 12                CMP $12
8057   D0 04                BNE L805D
8059   B5 D6                LDA $D6,X
805B   C5 13                CMP $13
805D   4C 83 7C   L805D     JMP L7C83
8060   20 7B 7E             JSR L7E7B
8063   A5 12                LDA $12
8065   D5 D5                CMP $D5,X
8067   A5 13                LDA $13
8069   F5 D6                SBC $D6,X
806B   B0 E0                BCS L804D
806D   4C 92 7C   L806D     JMP L7C92
8070   20 E9 7A             JSR L7AE9
8073   A8                   TAY
8074   4C 72 EF             JMP $EF72
8077   20 75 7E             JSR L7E75
807A   20 E9 7A             JSR L7AE9
807D   95 D5                STA $D5,X
807F   20 E9 7A             JSR L7AE9
8082   95 D6                STA $D6,X
8084   60                   RTS
8085   20 E9 7A             JSR L7AE9
8088   A4 D0                LDY $D0
808A   C8                   INY
808B   D1 36                CMP ($36),Y
808D   4C 83 7C             JMP L7C83
8090   A4 D0                LDY $D0
8092   4C F5 70             JMP L70F5
8095   20 E9 7A             JSR L7AE9
8098   48                   PHA
8099   20 4A 6F             JSR L6F4A
809C   68                   PLA
809D   B0 15                BCS L80B4
809F   0A                   ASL A
80A0   AA                   TAX
80A1   BD 3E D5             LDA $D53E,X
80A4   85 49                STA $49
80A6   BD 3F D5             LDA $D53F,X
80A9   85 4A                STA $4A
80AB   20 66 F6             JSR $F666
80AE   20 81 FB             JSR $FB81
80B1   4C 92 7C   L80B1     JMP L7C92
80B4   4C 85 7C   L80B4     JMP L7C85
80B7   20 EF 80             JSR L80EF
80BA   20 16 6F             JSR L6F16
80BD   C3                   ???                ;11000011
80BE   80                   ???                ;10000000
80BF   B0 F3                BCS L80B4
80C1   90 EE                BCC L80B1
80C3   A0 29                LDY #$29
80C5   B1 12                LDA ($12),Y
80C7   49 0D                EOR #$0D
80C9   D0 1A                BNE L80E5
80CB   A8                   TAY
80CC   B1 12      L80CC     LDA ($12),Y
80CE   D1 38                CMP ($38),Y
80D0   D0 13                BNE L80E5
80D2   C9 FF                CMP #$FF
80D4   F0 05                BEQ L80DB
80D6   C8                   INY
80D7   C0 10                CPY #$10
80D9   90 F1                BCC L80CC
80DB   68         L80DB     PLA
80DC   68                   PLA
80DD   20 89 7E             JSR L7E89
80E0   8A                   TXA
80E1   4A                   LSR A
80E2   85 83                STA $83
80E4   18                   CLC
80E5   60         L80E5     RTS
80E6   A5 83                LDA $83
80E8   0A                   ASL A
80E9   20 44 6D             JSR L6D44
80EC   4C 81 FB             JMP $FB81
80EF   A5 D1      L80EF     LDA $D1
80F1   85 38                STA $38
80F3   A5 D2                LDA $D2
80F5   85 39                STA $39
80F7   20 E9 7A   L80F7     JSR L7AE9
80FA   C9 FF                CMP #$FF
80FC   D0 F9                BNE L80F7
80FE   60                   RTS
80FF   A9 F0                LDA #$F0
8101   2C A9 D0             BIT $D0A9
8104   8D 1D 81             STA $811D
8107   20 47 81             JSR L8147
810A   20 16 6F             JSR L6F16
810D   15 81                ORA $81,X
810F   6A                   ROR A
8110   29 80                AND #$80
8112   4C 83 7C             JMP L7C83
8115   F0 0B                BEQ L8122
8117   A4 16                LDY $16
8119   B1 12                LDA ($12),Y
811B   25 15                AND $15
811D   F0 03                BEQ L8122
811F   68                   PLA
8120   68                   PLA
8121   18                   CLC
8122   60         L8122     RTS
8123   18                   CLC
8124   24 38                BIT $38
8126   66 93                ROR $93
8128   20 47 81             JSR L8147
812B   20 16 6F             JSR L6F16
812E   31 81                AND ($81),Y
8130   60         L8130     RTS
8131   F0 FD                BEQ L8130
8133   A4 16                LDY $16
8135   A5 15                LDA $15
8137   24 93                BIT $93
8139   30 05                BMI L8140
813B   11 12                ORA ($12),Y
813D   91 12                STA ($12),Y
813F   60                   RTS
8140   49 FF      L8140     EOR #$FF
8142   31 12                AND ($12),Y
8144   91 12                STA ($12),Y
8146   60                   RTS
8147   20 09 7D   L8147     JSR L7D09
814A   BD 58 CD             LDA $CD58,X
814D   85 15                STA $15
814F   98                   TYA
8150   18                   CLC
8151   69 72                ADC #$72
8153   85 16                STA $16
8155   60                   RTS
8156   20 E9 7A             JSR L7AE9
8159   85 15                STA $15
815B   20 16 6F             JSR L6F16
815E   68                   PLA
815F   81 6A                STA ($6A,X)
8161   29 80                AND #$80
8163   49 80                EOR #$80
8165   4C 83 7C             JMP L7C83
8168   F0 0F                BEQ L8179
816A   A0 1D                LDY #$1D
816C   B1 12                LDA ($12),Y
816E   C5 15                CMP $15
8170   C8                   INY
8171   B1 12                LDA ($12),Y
8173   E9 00                SBC #$00
8175   B0 02                BCS L8179
8177   68                   PLA
8178   68                   PLA
8179   60         L8179     RTS
817A   A5 08                LDA $08
817C   D0 06                BNE L8184
817E   20 25 A0             JSR $A025
8181   4C 75 9C             JMP $9C75
8184   4C EA A0   L8184     JMP $A0EA
8187   20 A5 81             JSR L81A5
818A   85 12                STA $12
818C   20 E9 7A             JSR L7AE9
818F   45 12                EOR $12
8191   29 0F                AND #$0F
8193   4C 83 7C             JMP L7C83
8196   20 A5 81             JSR L81A5
8199   98                   TYA
819A   48                   PHA
819B   20 E9 7A             JSR L7AE9
819E   AA                   TAX
819F   68                   PLA
81A0   A8                   TAY
81A1   8A                   TXA
81A2   91 12                STA ($12),Y
81A4   60                   RTS
81A5   20 00 8E   L81A5     JSR L8E00
81A8   A6 0A                LDX $0A
81AA   A4 09                LDY $09
81AC   20 08 A1             JSR $A108
81AF   98                   TYA
81B0   48                   PHA
81B1   20 F8 8D             JSR L8DF8
81B4   20 00 8E             JSR L8E00
81B7   20 F8 8D             JSR L8DF8
81BA   68                   PLA
81BB   A8                   TAY
81BC   B1 12                LDA ($12),Y
81BE   60                   RTS
81BF   20 E9 7A             JSR L7AE9
81C2   A0 29                LDY #$29
81C4   D1 36                CMP ($36),Y
81C6   4C 83 7C             JMP L7C83
81C9   60         L81C9     RTS
81CA   A2 06      L81CA     LDX #$06
81CC   A0 0C      L81CC     LDY #$0C
81CE   18                   CLC
81CF   BD 80 D1             LDA $D180,X
81D2   79 10 D3             ADC $D310,Y
81D5   85 12                STA $12
81D7   BD 48 D2             LDA $D248,X
81DA   79 B0 D3             ADC $D3B0,Y
81DD   85 13                STA $13
81DF   A0 50                LDY #$50
81E1   A9 00      L81E1     LDA #$00
81E3   91 12                STA ($12),Y
81E5   98                   TYA
81E6   38                   SEC
81E7   E9 08                SBC #$08
81E9   A8                   TAY
81EA   C0 F8                CPY #$F8
81EC   D0 F3                BNE L81E1
81EE   E8                   INX
81EF   E0 5E                CPX #$5E
81F1   90 D9                BCC L81CC
81F3   A2 00      L81F3     LDX #$00
81F5   86 2E                STX $2E
81F7   86 1F                STX $1F
81F9   CA                   DEX
81FA   86 02                STX $02
81FC   60                   RTS
81FD   A9 08      L81FD     LDA #$08
81FF   85 50                STA $50
8201   A2 06      L8201     LDX #$06
8203   A0 0C      L8203     LDY #$0C
8205   18                   CLC
8206   BD 80 D1             LDA $D180,X
8209   79 10 D3             ADC $D310,Y
820C   85 12                STA $12
820E   BD 48 D2             LDA $D248,X
8211   79 B0 D3             ADC $D3B0,Y
8214   85 13                STA $13
8216   A0 50                LDY #$50
8218   B1 12      L8218     LDA ($12),Y
821A   38                   SEC
821B   6A                   ROR A
821C   91 12                STA ($12),Y
821E   98                   TYA
821F   38                   SEC
8220   E9 08                SBC #$08
8222   A8                   TAY
8223   C0 F8                CPY #$F8
8225   D0 F1                BNE L8218
8227   E8                   INX
8228   E0 5E                CPX #$5E
822A   90 D7                BCC L8203
822C   C6 50                DEC $50
822E   D0 D1                BNE L8201
8230   F0 C1                BEQ L81F3
8232   A2 01      L8232     LDX #$01
8234   A0 08                LDY #$08
8236   AD 00 08             LDA $0800
8239   48                   PHA
823A   20 99 82             JSR L8299
823D   68                   PLA
823E   20 E6 8A             JSR L8AE6
8241   A9 00                LDA #$00
8243   85 18                STA $18
8245   AC 83 82             LDY $8283
8248   84 1C      L8248     STY $1C
824A   AE 81 82             LDX $8281
824D   86 1A      L824D     STX $1A
824F   98                   TYA
8250   0A                   ASL A
8251   0A                   ASL A
8252   A8                   TAY
8253   BD 80 D1             LDA $D180,X
8256   79 10 D3             ADC $D310,Y
8259   85 12                STA $12
825B   BD 48 D2             LDA $D248,X
825E   79 B0 D3             ADC $D3B0,Y
8261   85 13                STA $13
8263   20 B8 82             JSR L82B8
8266   45 18                EOR $18
8268   85 18                STA $18
826A   A0 00                LDY #$00
826C   91 12                STA ($12),Y
826E   A4 1C                LDY $1C
8270   A6 1A                LDX $1A
8272   E8                   INX
8273   EC 82 82             CPX $8282
8276   90 D5                BCC L824D
8278   C8                   INY
8279   CC 84 82             CPY $8284
827C   90 CA                BCC L8248
827E   F0 C8                BEQ L8248
8280   60                   RTS
8281   06 5E                ASL $5E
8283   03                   ???                ;00000011
8284   0D 00 01             ORA $0100
8287   04                   ???                ;00000100
8288   05 06                ORA $06
828A   07                   ???                ;00000111
828B   08                   PHP
828C   09 0A                ORA #$0A
828E   16 17                ASL $17,X
8290   18                   CLC
8291   19 1A 1B             ORA $1B1A,Y
8294   1C                   ???                ;00011100
8295   1D 3C 3D             ORA $3D3C,X
8298   3E 8E 3C             ROL $3C8E,X
829B   83                   ???                ;10000011
829C   8C 3D 83             STY $833D
829F   A2 00                LDX #$00
82A1   86 15                STX $15
82A3   86 B2                STX $B2
82A5   CA                   DEX
82A6   86 16                STX $16
82A8   A0 00                LDY #$00
82AA   A2 08      L82AA     LDX #$08
82AC   20 30 83             JSR L8330
82AF   99 1F 02             STA $021F,Y
82B2   C8                   INY
82B3   C0 14                CPY #$14
82B5   90 F3                BCC L82AA
82B7   60                   RTS
82B8   A5 15      L82B8     LDA $15
82BA   F0 05                BEQ L82C1
82BC   C6 15                DEC $15
82BE   A5 19                LDA $19
82C0   60                   RTS
82C1   A2 01      L82C1     LDX #$01
82C3   20 30 83             JSR L8330
82C6   4A                   LSR A
82C7   B0 05                BCS L82CE
82C9   A2 08                LDX #$08
82CB   4C 30 83             JMP L8330
82CE   A2 03      L82CE     LDX #$03
82D0   20 30 83             JSR L8330
82D3   A8                   TAY
82D4   F0 45                BEQ L831B
82D6   C0 01                CPY #$01
82D8   F0 41                BEQ L831B
82DA   48                   PHA
82DB   A2 01                LDX #$01
82DD   20 30 83             JSR L8330
82E0   4A                   LSR A
82E1   68                   PLA
82E2   2A                   ROL A
82E3   A0 08                LDY #$08
82E5   D9 85 82   L82E5     CMP $8285,Y
82E8   F0 31                BEQ L831B
82EA   88                   DEY
82EB   C0 01                CPY #$01
82ED   D0 F6                BNE L82E5
82EF   48                   PHA
82F0   A2 01                LDX #$01
82F2   20 30 83             JSR L8330
82F5   4A                   LSR A
82F6   68                   PLA
82F7   2A                   ROL A
82F8   A0 10                LDY #$10
82FA   D9 85 82   L82FA     CMP $8285,Y
82FD   F0 1C                BEQ L831B
82FF   88                   DEY
8300   C0 08                CPY #$08
8302   D0 F6                BNE L82FA
8304   48                   PHA
8305   A2 01                LDX #$01
8307   20 30 83             JSR L8330
830A   4A                   LSR A
830B   68                   PLA
830C   2A                   ROL A
830D   A0 13                LDY #$13
830F   D9 85 82   L830F     CMP $8285,Y
8312   F0 07                BEQ L831B
8314   88                   DEY
8315   C0 10                CPY #$10
8317   D0 F6                BNE L830F
8319   F0 04                BEQ L831F
831B   B9 1F 02   L831B     LDA $021F,Y
831E   60                   RTS
831F   A2 08      L831F     LDX #$08
8321   20 30 83             JSR L8330
8324   85 15                STA $15
8326   C6 15                DEC $15
8328   A2 08                LDX #$08
832A   20 30 83             JSR L8330
832D   85 19                STA $19
832F   60                   RTS
8330   A9 00      L8330     LDA #$00
8332   24 16      L8332     BIT $16
8334   10 13                BPL L8349
8336   48                   PHA
8337   A9 07                LDA #$07
8339   85 16                STA $16
833B   AD FF FF             LDA $FFFF
833E   EE 3C 83             INC $833C
8341   D0 03                BNE L8346
8343   EE 3D 83             INC $833D
8346   85 B2      L8346     STA $B2
8348   68                   PLA
8349   06 B2      L8349     ASL $B2
834B   2A                   ROL A
834C   C6 16                DEC $16
834E   CA                   DEX
834F   D0 E1                BNE L8332
8351   60                   RTS
8352   A9 00      L8352     LDA #$00
8354   85 2E                STA $2E
8356   A2 03                LDX #$03
8358   8A         L8358     TXA
8359   48                   PHA
835A   A9 01                LDA #$01
835C   20 65 83             JSR L8365
835F   68                   PLA
8360   AA                   TAX
8361   CA                   DEX
8362   10 F4                BPL L8358
8364   60                   RTS
8365   85 12      L8365     STA $12
8367   8A                   TXA
8368   0A                   ASL A
8369   8D 7E 84             STA $847E
836C   A9 08                LDA #$08
836E   8D 7F 84             STA $847F
8371   20 7D 84             JSR L847D
8374   48                   PHA
8375   20 7D 84             JSR L847D
8378   18                   CLC
8379   69 08                ADC #$08
837B   8D 7F 84             STA $847F
837E   68                   PLA
837F   8D 7E 84             STA $847E
8382   D0 07                BNE L838B
8384   AD 7F 84             LDA $847F
8387   C9 08                CMP #$08
8389   F0 03                BEQ L838E
838B   A5 12      L838B     LDA $12
838D   2C A9 00             BIT $00A9
8390   9D 26 84             STA $8426,X
8393   9D 2A 84             STA $842A,X
8396   05 2E                ORA $2E
8398   85 2E                STA $2E
839A   8A         L839A     TXA
839B   0A                   ASL A
839C   A8                   TAY
839D   AD 7E 84             LDA $847E
83A0   99 1E 84             STA $841E,Y
83A3   AD 7F 84             LDA $847F
83A6   99 1F 84             STA $841F,Y
83A9   60         L83A9     RTS
83AA   A9 00      L83AA     LDA #$00
83AC   8D 05 FE             STA $FE05
83AF   AD 4E 03   L83AF     LDA $034E
83B2   29 40                AND #$40
83B4   D0 06                BNE L83BC
83B6   A5 BA                LDA $BA
83B8   C9 03                CMP #$03
83BA   B0 05                BCS L83C1
83BC   AD 05 FE   L83BC     LDA $FE05
83BF   D0 E8                BNE L83A9
83C1   A5 2E      L83C1     LDA $2E
83C3   F0 E4                BEQ L83A9
83C5   A2 03                LDX #$03
83C7   8A         L83C7     TXA
83C8   48                   PHA
83C9   20 D7 83             JSR L83D7
83CC   68                   PLA
83CD   AA                   TAX
83CE   CA                   DEX
83CF   10 F6                BPL L83C7
83D1   A9 06                LDA #$06
83D3   8D 05 FE             STA $FE05
83D6   60         L83D6     RTS
83D7   8A         L83D7     TXA
83D8   0A                   ASL A
83D9   A8                   TAY
83DA   BD 2A 84             LDA $842A,X
83DD   F0 F7                BEQ L83D6
83DF   BD 26 84             LDA $8426,X
83E2   F0 05                BEQ L83E9
83E4   DE 26 84             DEC $8426,X
83E7   D0 ED                BNE L83D6
83E9   B9 1E 84   L83E9     LDA $841E,Y
83EC   8D 7E 84             STA $847E
83EF   B9 1F 84             LDA $841F,Y
83F2   8D 7F 84             STA $847F
83F5   20 7D 84             JSR L847D
83F8   8D 72 84             STA $8472
83FB   20 7D 84             JSR L847D
83FE   18                   CLC
83FF   69 08                ADC #$08
8401   8D 73 84             STA $8473
8404   8A                   TXA
8405   48                   PHA
8406   20 2E 84             JSR L842E
8409   68                   PLA
840A   AA                   TAX
840B   20 7D 84             JSR L847D
840E   09 00                ORA #$00
8410   D0 06                BNE L8418
8412   20 7D 84             JSR L847D
8415   4C 65 83             JMP L8365
8418   9D 26 84   L8418     STA $8426,X
841B   4C 9A 83             JMP L839A
841E   00                   BRK
841F   00                   BRK
8420   00                   BRK
8421   00                   BRK
8422   00                   BRK
8423   00                   BRK
8424   00                   BRK
8425   00                   BRK
8426   00                   BRK
8427   00                   BRK
8428   00                   BRK
8429   00                   BRK
842A   00                   BRK
842B   00                   BRK
842C   00                   BRK
842D   00                   BRK
842E   A0 03      L842E     LDY #$03
8430   A2 06      L8430     LDX #$06
8432   84 1C      L8432     STY $1C
8434   98                   TYA
8435   0A                   ASL A
8436   0A                   ASL A
8437   A8                   TAY
8438   BD 80 D1             LDA $D180,X
843B   79 10 D3             ADC $D310,Y
843E   85 12                STA $12
8440   BD 48 D2             LDA $D248,X
8443   79 B0 D3             ADC $D3B0,Y
8446   85 13                STA $13
8448   20 71 84             JSR L8471
844B   C9 00                CMP #$00
844D   F0 15                BEQ L8464
844F   A0 00                LDY #$00
8451   51 12                EOR ($12),Y
8453   91 12                STA ($12),Y
8455   A4 1C                LDY $1C
8457   E8                   INX
8458   E0 5E                CPX #$5E
845A   90 D6                BCC L8432
845C   C8                   INY
845D   C0 0D                CPY #$0D
845F   90 CF                BCC L8430
8461   F0 CD                BEQ L8430
8463   60                   RTS
8464   20 71 84   L8464     JSR L8471
8467   A8                   TAY
8468   20 71 84             JSR L8471
846B   AA                   TAX
846C   C0 FF                CPY #$FF
846E   D0 C2                BNE L8432
8470   60                   RTS
8471   AD FF FF   L8471     LDA $FFFF
8474   EE 72 84             INC $8472
8477   D0 03                BNE L847C
8479   EE 73 84             INC $8473
847C   60         L847C     RTS
847D   AD FF FF   L847D     LDA $FFFF
8480   EE 7E 84             INC $847E
8483   D0 03                BNE L8488
8485   EE 7F 84             INC $847F
8488   60         L8488     RTS
8489   A9 A0      L8489     LDA #$A0
848B   2C A9 8D             BIT $8DA9
848E   48         L848E     PHA
848F   8D 1F 85             STA $851F
8492   8A                   TXA
8493   48                   PHA
8494   98                   TYA
8495   48                   PHA
8496   AD 1F 85             LDA $851F
8499   20 A2 84             JSR L84A2
849C   68                   PLA
849D   A8                   TAY
849E   68                   PLA
849F   AA                   TAX
84A0   68                   PLA
84A1   60                   RTS
84A2   AE 3A 85   L84A2     LDX $853A
84A5   9D 3B 85             STA $853B,X
84A8   EE 3A 85             INC $853A
84AB   C9 8D                CMP #$8D
84AD   D0 03                BNE L84B2
84AF   4C 20 85             JMP L8520
84B2   18         L84B2     CLC
84B3   AD 63 85             LDA $8563
84B6   6D 3A 85             ADC $853A
84B9   C9 27                CMP #$27
84BB   B0 01                BCS L84BE
84BD   60                   RTS
84BE   CE 3A 85   L84BE     DEC $853A
84C1   F0 0D                BEQ L84D0
84C3   AE 3A 85             LDX $853A
84C6   BD 3B 85   L84C6     LDA $853B,X
84C9   C9 A0                CMP #$A0
84CB   F0 1A                BEQ L84E7
84CD   CA                   DEX
84CE   10 F6                BPL L84C6
84D0   20 20 85   L84D0     JSR L8520
84D3   A9 8D                LDA #$8D
84D5   20 C5 85             JSR L85C5
84D8   A5 20                LDA $20
84DA   8D 63 85             STA $8563
84DD   AD 1F 85             LDA $851F
84E0   8D 3B 85             STA $853B
84E3   A2 01                LDX #$01
84E5   D0 34                BNE L851B
84E7   8E F4 84   L84E7     STX $84F4
84EA   A2 00                LDX #$00
84EC   BD 3B 85   L84EC     LDA $853B,X
84EF   20 C5 85             JSR L85C5
84F2   E8                   INX
84F3   E0 00                CPX #$00
84F5   90 F5                BCC L84EC
84F7   A9 8D                LDA #$8D
84F9   20 C5 85             JSR L85C5
84FC   A5 20                LDA $20
84FE   8D 63 85             STA $8563
8501   8A                   TXA
8502   A8                   TAY
8503   C8                   INY
8504   A2 00                LDX #$00
8506   EE 3A 85             INC $853A
8509   CC 3A 85             CPY $853A
850C   B0 0D                BCS L851B
850E   B9 3B 85   L850E     LDA $853B,Y
8511   9D 3B 85             STA $853B,X
8514   C8                   INY
8515   E8                   INX
8516   CC 3A 85             CPY $853A
8519   90 F3                BCC L850E
851B   8E 3A 85   L851B     STX $853A
851E   60                   RTS
851F   00                   BRK

8520   AC 3A 85   L8520     LDY $853A
8523   F0 0F                BEQ L8534
8525   A2 00                LDX #$00
8527   BD 3B 85   L8527     LDA $853B,X
852A   20 C5 85             JSR L85C5
852D   E8                   INX
852E   88                   DEY
852F   D0 F6                BNE L8527
8531   8C 3A 85             STY $853A
8534   A5 20      L8534     LDA $20
8536   8D 63 85             STA $8563
8539   60                   RTS

853A   00                   BRK                  ; variables
853B   00                   BRK
853C   00                   BRK
853D   00                   BRK
853E   00                   BRK
853F   00                   BRK
8540   00                   BRK
8541   00                   BRK
8542   00                   BRK
8543   00                   BRK
8544   00                   BRK
8545   00                   BRK
8546   00                   BRK
8547   00                   BRK
8548   00                   BRK
8549   00                   BRK
854A   00                   BRK
854B   00                   BRK
854C   00                   BRK
854D   00                   BRK
854E   00                   BRK
854F   00                   BRK
8550   00                   BRK
8551   00                   BRK
8552   00                   BRK
8553   00                   BRK
8554   00                   BRK
8555   00                   BRK
8556   00                   BRK
8557   00                   BRK
8558   00                   BRK
8559   00                   BRK
855A   00                   BRK
855B   00                   BRK
855C   00                   BRK
855D   00                   BRK
855E   00                   BRK
855F   00                   BRK
8560   00                   BRK
8561   00                   BRK
8562   00                   BRK
8563   00                   BRK

8564   38         L8564     SEC
8565   24 18                BIT $18
8567   86 1A                STX $1A
8569   84 1C                STY $1C
856B   A5 3C                LDA $3C
856D   8D 72 84             STA $8472
8570   A5 3D                LDA $3D
8572   8D 73 84             STA $8473
8575   A9 20                LDA #$20
8577   A2 71                LDX #$71
8579   A0 84                LDY #$84
857B   90 06                BCC L8583
857D   A9 A9                LDA #$A9
857F   A2 00                LDX #$00
8581   A0 EA                LDY #$EA
8583   8D B1 85   L8583     STA L85B1
8586   8E B2 85             STX $85B2
8589   8C B3 85             STY $85B3
858C   20 71 84             JSR L8471
858F   85 15                STA $15
8591   20 71 84             JSR L8471
8594   85 16                STA $16
8596   A4 1C      L8596     LDY $1C
8598   A5 1A                LDA $1A
859A   0A                   ASL A
859B   0A                   ASL A
859C   AA                   TAX
859D   B9 80 D1             LDA $D180,Y
85A0   7D 10 D3             ADC $D310,X
85A3   85 12                STA $12
85A5   B9 48 D2             LDA $D248,Y
85A8   7D B0 D3             ADC $D3B0,X
85AB   85 13                STA $13
85AD   A6 15                LDX $15
85AF   A0 00                LDY #$00
85B1   20 71 84   L85B1     JSR L8471
85B4   91 12                STA ($12),Y
85B6   98                   TYA
85B7   18                   CLC
85B8   69 08                ADC #$08
85BA   A8                   TAY
85BB   CA                   DEX
85BC   D0 F3                BNE L85B1
85BE   E6 1C                INC $1C
85C0   C6 16                DEC $16
85C2   D0 D2                BNE L8596
85C4   60                   RTS
85C5   48         L85C5     PHA
85C6   85 23                STA $23
85C8   8A                   TXA
85C9   48                   PHA
85CA   98                   TYA
85CB   48                   PHA
85CC   A5 23                LDA $23
85CE   30 28                BMI L85F8
85D0   A5 22                LDA $22
85D2   38                   SEC
85D3   E9 05                SBC #$05
85D5   90 1F                BCC L85F6
85D7   4A                   LSR A
85D8   4A                   LSR A
85D9   4A                   LSR A
85DA   C9 0B                CMP #$0B
85DC   B0 18                BCS L85F6
85DE   AA                   TAX
85DF   A5 23                LDA $23
85E1   9D B8 8C             STA $8CB8,X
85E4   A9 FF                LDA #$FF
85E6   9D AD 8C             STA $8CAD,X
85E9   85 24                STA $24
85EB   A5 23                LDA $23
85ED   20 0B 86             JSR L860B
85F0   A9 FF                LDA #$FF
85F2   85 24                STA $24
85F4   D0 0F                BNE L8605
85F6   A5 23      L85F6     LDA $23
85F8   C9 8D      L85F8     CMP #$8D
85FA   D0 06                BNE L8602
85FC   20 5C 86             JSR L865C
85FF   4C 05 86             JMP L8605
8602   20 0B 86   L8602     JSR L860B
8605   68         L8605     PLA
8606   A8                   TAY
8607   68                   PLA
8608   AA                   TAX
8609   68                   PLA
860A   60                   RTS
860B   29 7F      L860B     AND #$7F
860D   0A                   ASL A
860E   0A                   ASL A
860F   26 13                ROL $13
8611   0A                   ASL A
8612   26 13                ROL $13
8614   18                   CLC
8615   69 00                ADC #$00
8617   8D 3E 86             STA $863E
861A   A5 13                LDA $13
861C   29 03                AND #$03
861E   69 CD                ADC #$CD
8620   8D 3F 86             STA $863F
8623   A6 22                LDX $22
8625   A5 20                LDA $20
8627   0A                   ASL A
8628   0A                   ASL A
8629   A8                   TAY
862A   18         L862A     CLC
862B   BD 80 D1             LDA $D180,X
862E   79 10 D3             ADC $D310,Y
8631   8D 43 86             STA $8643
8634   BD 48 D2             LDA $D248,X
8637   79 B0 D3             ADC $D3B0,Y
863A   8D 44 86             STA $8644
863D   AD FF FF             LDA $FFFF
8640   45 24                EOR $24
8642   8D FF FF             STA $FFFF
8645   E8                   INX
8646   EE 3E 86             INC $863E
8649   AD 3E 86             LDA $863E
864C   29 07                AND #$07
864E   D0 DA                BNE L862A
8650   E6 20                INC $20
8652   60                   RTS
8653   60         L8653     RTS
8654   BD 5A 86             LDA $865A,X
8657   85 24                STA $24
8659   60                   RTS
865A   FF                   ???                ;11111111
865B   00                   BRK
865C   A9 12      L865C     LDA #$12
865E   85 20                STA $20
8660   A5 22                LDA $22
8662   18                   CLC
8663   69 08                ADC #$08
8665   C9 55                CMP #$55
8667   90 07                BCC L8670
8669   F0 05                BEQ L8670
866B   20 B2 86             JSR L86B2
866E   A5 22                LDA $22
8670   85 22      L8670     STA $22
8672   60                   RTS

; -- clear screen or copy to screen
8673   20 10 8C   L8673     JSR L8C10
8676   A2 05                LDX #$05
8678   A0 48      L8678     LDY #$48
867A   18                   CLC
867B   BD 80 D1             LDA $D180,X
867E   79 10 D3             ADC $D310,Y
8681   85 12                STA $12
8683   BD 48 D2             LDA $D248,X
8686   79 B0 D3             ADC $D3B0,Y
8689   85 13                STA $13
868B   A0 98                LDY #$98
868D   A9 FF      L868D     LDA #$FF
868F   91 12                STA ($12),Y
8691   98                   TYA
8692   38                   SEC
8693   E9 08                SBC #$08
8695   A8                   TAY
8696   C0 F8                CPY #$F8
8698   D0 F3                BNE L868D
869A   E8                   INX
869B   E0 5E                CPX #$5E
869D   90 D9                BCC L8678
869F   A9 12                LDA #$12
86A1   85 20                STA $20
86A3   8D 63 85             STA $8563
86A6   A9 05                LDA #$05
86A8   85 22                STA $22
86AA   A9 00                LDA #$00
86AC   8D 3A 85             STA $853A
86AF   85 2D                STA $2D
86B1   60                   RTS

; -- ??? -----------------------------------------------------------------
86B2   A2 00      L86B2     LDX #$00
86B4   BD AE 8C   L86B4     LDA $8CAE,X
86B7   9D AD 8C             STA $8CAD,X
86BA   BD B9 8C             LDA $8CB9,X
86BD   9D B8 8C             STA $8CB8,X
86C0   E8                   INX
86C1   E0 0A                CPX #$0A
86C3   90 EF                BCC L86B4
86C5   A9 00                LDA #$00
86C7   8D B7 8C             STA $8CB7
86CA   8D C2 8C             STA $8CC2
86CD   A6 32                LDX $32
86CF   BD 4E 87             LDA $874E,X
86D2   4A                   LSR A
86D3   4A                   LSR A
86D4   4A                   LSR A
86D5   4A                   LSR A
86D6   8D FA 86             STA $86FA
86D9   BD 4E 87             LDA $874E,X
86DC   29 0F                AND #$0F
86DE   8D 4D 87             STA $874D
86E1   A2 05      L86E1     LDX #$05
86E3   A0 48      L86E3     LDY #$48
86E5   18                   CLC
86E6   BD 80 D1             LDA $D180,X
86E9   79 10 D3             ADC $D310,Y
86EC   85 12                STA $12
86EE   BD 48 D2             LDA $D248,X
86F1   79 B0 D3             ADC $D3B0,Y
86F4   85 13                STA $13
86F6   8A                   TXA
86F7   48                   PHA
86F8   18                   CLC
86F9   69 00                ADC #$00
86FB   C9 5E                CMP #$5E
86FD   90 02                BCC L8701
86FF   A9 5D                LDA #$5D
8701   AA         L8701     TAX
8702   18                   CLC
8703   BD 80 D1             LDA $D180,X
8706   79 10 D3             ADC $D310,Y
8709   85 15                STA $15
870B   BD 48 D2             LDA $D248,X
870E   79 B0 D3             ADC $D3B0,Y
8711   85 16                STA $16
8713   A0 98                LDY #$98
8715   B1 15      L8715     LDA ($15),Y
8717   91 12                STA ($12),Y
8719   98                   TYA
871A   38                   SEC
871B   E9 08                SBC #$08
871D   A8                   TAY
871E   C0 F8                CPY #$F8
8720   D0 F3                BNE L8715
8722   68                   PLA
8723   AA                   TAX
8724   E8                   INX
8725   E0 5E                CPX #$5E
8727   90 BA                BCC L86E3
8729   AD 4D 87             LDA $874D
872C   38                   SEC
872D   E9 01                SBC #$01
872F   F0 04                BEQ L8735
8731   C9 04                CMP #$04
8733   D0 06                BNE L873B
8735   20 FB 77   L8735     JSR L77FB
8738   20 AA 83             JSR L83AA
873B   A6 32      L873B     LDX $32
873D   BC 5E 87             LDY $875E,X
8740   C0 01                CPY #$01
8742   F0 03                BEQ L8747
8744   20 52 8F             JSR L8F52
8747   CE 4D 87   L8747     DEC $874D
874A   D0 95                BNE L86E1
874C   60                   RTS
874D   00                   BRK
874E   18                   CLC
874F   18                   CLC
8750   18                   CLC
8751   18                   CLC
8752   18                   CLC
8753   18                   CLC
8754   18                   CLC
8755   18                   CLC
8756   18                   CLC
8757   18                   CLC
8758   24 24                BIT $24
875A   42                   ???                ;01000010 'B'
875B   42                   ???                ;01000010 'B'
875C   81 81                STA ($81,X)
875E   13                   ???                ;00010011
875F   12                   ???                ;00010010
8760   11 10                ORA ($10),Y
8762   0E 0D 08             ASL $080D
8765   05 03                ORA $03
8767   01 03                ORA ($03,X)
8769   01 03                ORA ($03,X)
876B   01 03                ORA ($03,X)
876D   01 00                ORA ($00,X)
876F   48         L876F     PHA
8770   A2 00                LDX #$00
8772   BC 73 E9   L8772     LDY $E973,X
8775   C8                   INY
8776   B1 36                LDA ($36),Y
8778   F0 05                BEQ L877F
877A   E8                   INX
877B   E0 0C                CPX #$0C
877D   90 F3                BCC L8772
877F   8E 6E 87   L877F     STX $876E
8782   68                   PLA
8783   09 20                ORA #$20
8785   E0 00                CPX #$00
8787   D0 2C                BNE L87B5
8789   A2 00                LDX #$00
878B   A0 29                LDY #$29
878D   B1 36                LDA ($36),Y
878F   C9 0D                CMP #$0D
8791   90 01                BCC L8794
8793   E8                   INX
8794   86 4F      L8794     STX $4F
8796   20 0A 74             JSR L740A
8799   EF                   ???                ;11101111
879A   7F                   ???                ;01111111
879B   A7                   ???                ;10100111
879C   AE FA 47             LDX $47FA
879F   FA                   ???                ;11111010
87A0   F9 53 D4             SBC $D453,Y
87A3   BF                   ???                ;10111111
87A4   A8                   TAY
87A5   60                   RTS
87A6   F2                   ???                ;11110010
87A7   2C D3 90             BIT $90D3
87AA   45 13                EOR $13
87AC   04                   ???                ;00000100
87AD   CD 84 EF             CMP $EF84
87B0   80                   ???                ;10000000
87B1   00                   BRK
87B2   4C 0D 6F             JMP L6F0D
87B5   A2 6E      L87B5     LDX #$6E
87B7   A0 87                LDY #$87
87B9   8D 18 89             STA $8918
87BC   86 27                STX $27
87BE   84 28                STY $28
87C0   4A                   LSR A
87C1   B0 06                BCS L87C9
87C3   A9 00                LDA #$00
87C5   85 25                STA $25
87C7   85 26                STA $26
87C9   20 8C 84   L87C9     JSR L848C
87CC   A9 96                LDA #$96
87CE   20 C5 85             JSR L85C5
87D1   A2 13                LDX #$13
87D3   A9 9E                LDA #$9E
87D5   20 C5 85   L87D5     JSR L85C5
87D8   CA                   DEX
87D9   D0 FA                BNE L87D5
87DB   A9 8D                LDA #$8D
87DD   20 C5 85             JSR L85C5
87E0   A2 00                LDX #$00
87E2   8A         L87E2     TXA
87E3   48                   PHA
87E4   E0 04      L87E4     CPX #$04
87E6   D0 07                BNE L87EF
87E8   A5 22                LDA $22
87EA   38                   SEC
87EB   E9 04                SBC #$04
87ED   85 22                STA $22
87EF   A9 98      L87EF     LDA #$98
87F1   20 C5 85             JSR L85C5
87F4   A9 24                LDA #$24
87F6   85 20                STA $20
87F8   68                   PLA
87F9   48                   PHA
87FA   AA                   TAX
87FB   BD D6 8A             LDA $8AD6,X
87FE   20 C5 85             JSR L85C5
8801   BD DE 8A             LDA $8ADE,X
8804   20 C5 85             JSR L85C5
8807   A9 8D                LDA #$8D
8809   20 C5 85             JSR L85C5
880C   68                   PLA
880D   AA                   TAX
880E   E8                   INX
880F   E0 08                CPX #$08
8811   90 CF                BCC L87E2
8813   A9 97                LDA #$97
8815   20 C5 85             JSR L85C5
8818   A2 13                LDX #$13
881A   A9 9F                LDA #$9F
881C   20 C5 85   L881C     JSR L85C5
881F   CA                   DEX
8820   D0 FA                BNE L881C
8822   A9 17                LDA #$17
8824   85 22                STA $22
8826   A9 00                LDA #$00
8828   48         L8828     PHA
8829   18                   CLC
882A   65 26                ADC $26
882C   20 F9 88             JSR L88F9
882F   18                   CLC
8830   A5 22                LDA $22
8832   69 08                ADC #$08
8834   85 22                STA $22
8836   68                   PLA
8837   18                   CLC
8838   69 01                ADC #$01
883A   C9 07                CMP #$07
883C   90 EA                BCC L8828
883E   A9 4D      L883E     LDA #$4D
8840   85 22                STA $22
8842   20 0F 8B             JSR L8B0F
8845   46 A0                LSR $A0
8847   8A                   TXA
8848   5C                   ???                ;01011100 '\'
8849   88                   DEY
884A   8B                   ???                ;10001011
884B   8C 88 95             STY $9588
884E   5C                   ???                ;01011100 '\'
884F   88                   DEY
8850   88                   DEY
8851   8C 88 9B             STY $9B88
8854   DE 88 8D             DEC $8D88,X
8857   B3                   ???                ;10110011
8858   88                   DEY
8859   00                   BRK
885A   B0 88                BCS L87E4
885C   A5 25                LDA $25
885E   18                   CLC
885F   69 01                ADC #$01
8861   B0 1F                BCS L8882
8863   A0 00                LDY #$00
8865   D1 27                CMP ($27),Y
8867   B0 19                BCS L8882
8869   85 25                STA $25
886B   38                   SEC
886C   E5 26                SBC $26
886E   C9 07                CMP #$07
8870   90 05                BCC L8877
8872   E6 26                INC $26
8874   20 60 8A             JSR L8A60
8877   A9 00      L8877     LDA #$00
8879   8D 0C FE             STA $FE0C
887C   A6 25                LDX $25
887E   CA                   DEX
887F   4C A8 88             JMP L88A8
8882   A2 8C      L8882     LDX #$8C
8884   A0 06                LDY #$06
8886   20 F6 92             JSR L92F6
8889   4C 3E 88             JMP L883E
888C   A5 25                LDA $25
888E   F0 F2                BEQ L8882
8890   C6 25                DEC $25
8892   A5 25                LDA $25
8894   38                   SEC
8895   E5 26                SBC $26
8897   C9 07                CMP #$07
8899   90 05                BCC L88A0
889B   C6 26                DEC $26
889D   20 9B 8A             JSR L8A9B
88A0   A9 00      L88A0     LDA #$00
88A2   8D 0C FE             STA $FE0C
88A5   A6 25                LDX $25
88A7   E8                   INX
88A8   A4 25      L88A8     LDY $25
88AA   20 E5 88             JSR L88E5
88AD   4C 3E 88             JMP L883E
88B0   4C 82 88             JMP L8882
88B3   A5 25                LDA $25
88B5   20 C6 88             JSR L88C6
88B8   A0 0F      L88B8     LDY #$0F
88BA   B1 44      L88BA     LDA ($44),Y
88BC   99 00 02             STA $0200,Y
88BF   88                   DEY
88C0   10 F8                BPL L88BA
88C2   A5 25                LDA $25
88C4   18                   CLC
88C5   60                   RTS
88C6   E6 27      L88C6     INC $27
88C8   0A                   ASL A
88C9   90 02                BCC L88CD
88CB   E6 28                INC $28
88CD   A8         L88CD     TAY
88CE   B1 27                LDA ($27),Y
88D0   85 44                STA $44
88D2   C8                   INY
88D3   B1 27                LDA ($27),Y
88D5   85 45                STA $45
88D7   90 02                BCC L88DB
88D9   C6 28                DEC $28
88DB   C6 27      L88DB     DEC $27
88DD   60                   RTS
88DE   A9 FF                LDA #$FF
88E0   8D 00 02             STA $0200
88E3   38                   SEC
88E4   60                   RTS
88E5   98         L88E5     TYA
88E6   48                   PHA
88E7   20 EC 88             JSR L88EC
88EA   68                   PLA
88EB   AA                   TAX
88EC   8A         L88EC     TXA
88ED   38                   SEC
88EE   E5 26                SBC $26
88F0   0A                   ASL A
88F1   0A                   ASL A
88F2   0A                   ASL A
88F3   18                   CLC
88F4   69 17                ADC #$17
88F6   85 22                STA $22
88F8   8A                   TXA
88F9   A2 13      L88F9     LDX #$13
88FB   86 20                STX $20
88FD   A2 24                LDX #$24
88FF   8E 2E 8A             STX $8A2E
8902   A0 00                LDY #$00
8904   D1 27                CMP ($27),Y
8906   90 03                BCC L890B
8908   4C 03 8A             JMP L8A03
890B   C5 25      L890B     CMP $25
890D   D0 02                BNE L8911
890F   84 24                STY $24
8911   48         L8911     PHA
8912   20 C6 88             JSR L88C6
8915   68                   PLA
8916   A8                   TAY
8917   A9 00                LDA #$00
8919   4A                   LSR A
891A   4A                   LSR A
891B   4A                   LSR A
891C   4A                   LSR A
891D   29 0E                AND #$0E
891F   AA                   TAX
8920   BD 2D 89             LDA $892D,X
8923   85 12                STA $12
8925   BD 2E 89             LDA $892E,X
8928   85 13                STA $13
892A   6C 12 00             JMP ($0012)
892D   F0 89                BEQ L88B8
892F   3D 89 EA             AND $EA89,X
8932   89                   ???                ;10001001
8933   03                   ???                ;00000011
8934   8A                   TXA
8935   03                   ???                ;00000011
8936   8A                   TXA
8937   03                   ???                ;00000011
8938   8A                   TXA
8939   03                   ???                ;00000011
893A   8A                   TXA
893B   B7                   ???                ;10110111
893C   89                   ???                ;10001001
893D   B9 73 E9             LDA $E973,Y
8940   48                   PHA
8941   20 20 85             JSR L8520
8944   A9 00                LDA #$00
8946   8D 63 85             STA $8563
8949   68                   PLA
894A   48                   PHA
894B   A8                   TAY
894C   B1 36                LDA ($36),Y
894E   85 55                STA $55
8950   10 06                BPL L8958
8952   29 03                AND #$03
8954   D0 02                BNE L8958
8956   A9 03                LDA #$03
8958   29 03      L8958     AND #$03
895A   AA                   TAX
895B   BD 0C CD             LDA $CD0C,X
895E   20 8E 84             JSR L848E
8961   68                   PLA
8962   A8                   TAY
8963   C8                   INY
8964   B1 36                LDA ($36),Y
8966   85 53                STA $53
8968   98                   TYA
8969   48                   PHA
896A   20 E6 6F             JSR L6FE6
896D   68                   PLA
896E   A8                   TAY
896F   C8                   INY
8970   B1 36                LDA ($36),Y
8972   C9 FF                CMP #$FF
8974   F0 1E                BEQ L8994
8976   C9 01                CMP #$01
8978   D0 0B                BNE L8985
897A   A6 53                LDX $53
897C   BD 73 E2             LDA $E273,X
897F   C9 01                CMP #$01
8981   F0 11                BEQ L8994
8983   A9 01                LDA #$01
8985   85 9B      L8985     STA $9B
8987   A9 00                LDA #$00
8989   85 9C                STA $9C
898B   20 0A 74             JSR L740A
898E   0F                   ???                ;00001111
898F   F6 00                INC $00,X
8991   20 85 72             JSR L7285
8994   AC 3A 85   L8994     LDY $853A
8997   A2 00                LDX #$00
8999   BD 3B 85   L8999     LDA $853B,X
899C   20 C5 85             JSR L85C5
899F   A5 20                LDA $20
89A1   CD 2E 8A             CMP $8A2E
89A4   B0 04                BCS L89AA
89A6   E8                   INX
89A7   88                   DEY
89A8   D0 EF                BNE L8999
89AA   A9 00      L89AA     LDA #$00
89AC   8D 3A 85             STA $853A
89AF   A5 20                LDA $20
89B1   8D 63 85             STA $8563
89B4   4C 03 8A             JMP L8A03
89B7   A9 1E                LDA #$1E
89B9   8D 2E 8A             STA $8A2E
89BC   20 33 8A             JSR L8A33
89BF   F0 03                BEQ L89C4
89C1   A9 A0                LDA #$A0
89C3   2C A9 DE             BIT $DEA9
89C6   85 12                STA $12
89C8   8A                   TXA
89C9   48                   PHA
89CA   A5 12                LDA $12
89CC   20 C5 85             JSR L85C5
89CF   20 0B 8A             JSR L8A0B
89D2   68                   PLA
89D3   A8                   TAY
89D4   BE 03 A8             LDX $A803,Y
89D7   20 A8 71             JSR L71A8
89DA   20 20 85             JSR L8520
89DD   20 56 72             JSR L7256
89E0   20 20 85             JSR L8520
89E3   A9 24                LDA #$24
89E5   8D 2E 8A             STA $8A2E
89E8   D0 19                BNE L8A03
89EA   20 0B 8A             JSR L8A0B
89ED   4C 03 8A             JMP L8A03
89F0   A0 00                LDY #$00
89F2   B1 44      L89F2     LDA ($44),Y
89F4   C9 FF                CMP #$FF
89F6   F0 0B                BEQ L8A03
89F8   20 C5 85             JSR L85C5
89FB   C8                   INY
89FC   A5 20                LDA $20
89FE   CD 2E 8A             CMP $8A2E
8A01   90 EF                BCC L89F2
8A03   20 2D 8A   L8A03     JSR L8A2D
8A06   A9 FF                LDA #$FF
8A08   85 24                STA $24
8A0A   60                   RTS
8A0B   A6 44      L8A0B     LDX $44
8A0D   A4 45                LDY $45
8A0F   8E 03 75             STX L7503
8A12   8C 04 75             STY $7504
8A15   20 65 74             JSR L7465
8A18   20 6F 74   L8A18     JSR L746F
8A1B   F0 10                BEQ L8A2D
8A1D   20 C5 85             JSR L85C5
8A20   C8                   INY
8A21   A5 20                LDA $20
8A23   CD 2E 8A             CMP $8A2E
8A26   90 F0                BCC L8A18
8A28   A5 20                LDA $20
8A2A   8D 32 8A             STA $8A32
8A2D   A9 00      L8A2D     LDA #$00
8A2F   4C 4D FD             JMP $FD4D
8A32   00                   BRK
8A33   A9 00      L8A33     LDA #$00
8A35   85 12                STA $12
8A37   A9 BA                LDA #$BA
8A39   85 13                STA $13
8A3B   A0 00                LDY #$00
8A3D   A2 00                LDX #$00
8A3F   E8         L8A3F     INX
8A40   B1 12                LDA ($12),Y
8A42   C8                   INY
8A43   C5 44                CMP $44
8A45   D0 06                BNE L8A4D
8A47   B1 12                LDA ($12),Y
8A49   C5 45                CMP $45
8A4B   F0 07                BEQ L8A54
8A4D   C8         L8A4D     INY
8A4E   D0 EF                BNE L8A3F
8A50   E6 13                INC $13
8A52   D0 EB                BNE L8A3F
8A54   A0 29      L8A54     LDY #$29
8A56   B1 36                LDA ($36),Y
8A58   A8                   TAY
8A59   BD 73 E6             LDA $E673,X
8A5C   39 87 D9             AND $D987,Y
8A5F   60                   RTS
8A60   A2 17      L8A60     LDX #$17
8A62   A0 4C      L8A62     LDY #$4C
8A64   18                   CLC
8A65   BD 88 D1             LDA $D188,X
8A68   79 10 D3             ADC $D310,Y
8A6B   85 15                STA $15
8A6D   BD 50 D2             LDA $D250,X
8A70   79 B0 D3             ADC $D3B0,Y
8A73   85 16                STA $16
8A75   18                   CLC
8A76   BD 80 D1             LDA $D180,X
8A79   79 10 D3             ADC $D310,Y
8A7C   85 12                STA $12
8A7E   BD 48 D2             LDA $D248,X
8A81   79 B0 D3             ADC $D3B0,Y
8A84   85 13                STA $13
8A86   A0 80                LDY #$80
8A88   B1 15      L8A88     LDA ($15),Y
8A8A   91 12                STA ($12),Y
8A8C   98                   TYA
8A8D   38                   SEC
8A8E   E9 08                SBC #$08
8A90   A8                   TAY
8A91   C0 F8                CPY #$F8
8A93   D0 F3                BNE L8A88
8A95   E8                   INX
8A96   E0 46                CPX #$46
8A98   90 C8                BCC L8A62
8A9A   60                   RTS
8A9B   A2 46      L8A9B     LDX #$46
8A9D   A0 4C      L8A9D     LDY #$4C
8A9F   18                   CLC
8AA0   BD 88 D1             LDA $D188,X
8AA3   79 10 D3             ADC $D310,Y
8AA6   85 12                STA $12
8AA8   BD 50 D2             LDA $D250,X
8AAB   79 B0 D3             ADC $D3B0,Y
8AAE   85 13                STA $13
8AB0   18                   CLC
8AB1   BD 80 D1             LDA $D180,X
8AB4   79 10 D3             ADC $D310,Y
8AB7   85 15                STA $15
8AB9   BD 48 D2             LDA $D248,X
8ABC   79 B0 D3             ADC $D3B0,Y
8ABF   85 16                STA $16
8AC1   A0 80                LDY #$80
8AC3   B1 15      L8AC3     LDA ($15),Y
8AC5   91 12                STA ($12),Y
8AC7   98                   TYA
8AC8   38                   SEC
8AC9   E9 08                SBC #$08
8ACB   A8                   TAY
8ACC   C0 F8                CPY #$F8
8ACE   D0 F3                BNE L8AC3
8AD0   CA                   DEX
8AD1   E0 17                CPX #$17
8AD3   B0 C8                BCS L8A9D
8AD5   60                   RTS
8AD6   99 91 95             STA $9591,Y
8AD9   95 95                STA $95,X
8ADB   95 93                STA $93,X
8ADD   9B                   ???                ;10011011
8ADE   9A                   TXS
8ADF   92                   ???                ;10010010
8AE0   9D 9D 9D             STA $9D9D,X
8AE3   9D 94 9C             STA $9C94,X
8AE6   A2 03      L8AE6     LDX #$03
8AE8   9D 28 04   L8AE8     STA $0428,X
8AEB   9D 50 04             STA $0450,X
8AEE   9D 78 04             STA $0478,X
8AF1   9D A0 04             STA $04A0,X
8AF4   9D C8 04             STA $04C8,X
8AF7   9D F0 04             STA $04F0,X
8AFA   9D 18 05             STA $0518,X
8AFD   9D 40 05             STA $0540,X
8B00   9D 68 05             STA $0568,X
8B03   9D 90 05             STA $0590,X
8B06   9D B8 05             STA $05B8,X
8B09   E8                   INX
8B0A   E0 0E                CPX #$0E
8B0C   90 DA                BCC L8AE8
8B0E   60                   RTS
8B0F   20 20 85   L8B0F     JSR L8520
8B12   BA                   TSX
8B13   BD 01 01             LDA $0101,X
8B16   85 12                STA $12
8B18   18                   CLC
8B19   69 02                ADC #$02
8B1B   9D 01 01             STA $0101,X
8B1E   BD 02 01             LDA $0102,X
8B21   85 13                STA $13
8B23   69 00                ADC #$00
8B25   9D 02 01             STA $0102,X
8B28   A0 01                LDY #$01
8B2A   B1 12                LDA ($12),Y
8B2C   8D C3 8C             STA $8CC3
8B2F   C8                   INY
8B30   B1 12                LDA ($12),Y
8B32   8D C4 8C             STA $8CC4
8B35   2C C3 8C             BIT $8CC3
8B38   10 03                BPL L8B3D
8B3A   20 C9 81             JSR L81C9
8B3D   2C C4 8C   L8B3D     BIT $8CC4
8B40   10 2A                BPL L8B6C
8B42   A5 22      L8B42     LDA $22
8B44   C9 55                CMP #$55
8B46   B0 06                BCS L8B4E
8B48   20 8C 84             JSR L848C
8B4B   4C 42 8B             JMP L8B42
8B4E   AD C4 8C   L8B4E     LDA $8CC4
8B51   29 03                AND #$03
8B53   0A                   ASL A
8B54   AA                   TAX
8B55   BD D1 8B             LDA $8BD1,X
8B58   BC D2 8B             LDY $8BD2,X
8B5B   AA                   TAX
8B5C   20 19 74             JSR L7419
8B5F   20 20 85             JSR L8520
8B62   A9 9B                LDA #$9B
8B64   8D C2 8C             STA $8CC2
8B67   A9 FF                LDA #$FF
8B69   8D B7 8C             STA $8CB7
8B6C   AD 4E 03   L8B6C     LDA $034E
8B6F   29 40                AND #$40
8B71   D0 03                BNE L8B76
8B73   20 59 FF             JSR $FF59
8B76   20 30 FF   L8B76     JSR $FF30
8B79   10 36                BPL L8BB1
8B7B   48                   PHA
8B7C   AD C4 8C             LDA $8CC4
8B7F   29 10                AND #$10
8B81   C9 10                CMP #$10
8B83   68                   PLA
8B84   B0 0A                BCS L8B90
8B86   C9 E1                CMP #$E1
8B88   90 06                BCC L8B90
8B8A   C9 FB                CMP #$FB
8B8C   B0 02                BCS L8B90
8B8E   29 DF                AND #$DF
8B90   C9 CE      L8B90     CMP #$CE
8B92   D0 10                BNE L8BA4
8B94   48                   PHA
8B95   AD C3 8C             LDA $8CC3
8B98   29 08                AND #$08
8B9A   C9 08                CMP #$08
8B9C   68                   PLA
8B9D   90 05                BCC L8BA4
8B9F   20 C7 8C             JSR L8CC7
8BA2   A9 90                LDA #$90
8BA4   2C C4 8C   L8BA4     BIT $8CC4
8BA7   10 0E                BPL L8BB7
8BA9   C9 A0                CMP #$A0
8BAB   D0 0A                BNE L8BB7
8BAD   A9 9B                LDA #$9B
8BAF   D0 06                BNE L8BB7
8BB1   20 16 8E   L8BB1     JSR L8E16
8BB4   90 B6                BCC L8B6C
8BB6   24 18                BIT $18
8BB8   B8                   CLV
8BB9   50 04                BVC L8BBF
8BBB   2C CB 8B             BIT $8BCB
8BBE   18                   CLC
8BBF   08         L8BBF     PHP
8BC0   48                   PHA
8BC1   20 1E 8C             JSR L8C1E
8BC4   B0 06                BCS L8BCC
8BC6   20 10 8C             JSR L8C10
8BC9   68                   PLA
8BCA   28                   PLP
8BCB   60                   RTS
8BCC   68         L8BCC     PLA
8BCD   28                   PLP
8BCE   4C 6C 8B             JMP L8B6C
8BD1   D9 8B E6             CMP $E68B,Y
8BD4   8B                   ???                ;10001011
8BD5   F5 8B                SBC $8B,X
8BD7   02                   ???                ;00000010
8BD8   8C 08 42             STY $4208
8BDB   1F                   ???                ;00011111
8BDC   F3                   ???                ;11110011
8BDD   FF                   ???                ;11111111
8BDE   7F                   ???                ;01111111
8BDF   E8                   INX
8BE0   66 F0                ROR $F0
8BE2   88                   DEY
8BE3   6F                   ???                ;01101111 'o'
8BE4   8C C0 08             STY $08C0
8BE7   43                   ???                ;01000011 'C'
8BE8   FE 7F EF             INC $EF7F,X
8BEB   FD 0C DE             SBC $DE0C,X
8BEE   12                   ???                ;00010010
8BEF   3D D3 53             AND $53D3,X
8BF2   A8                   TAY
8BF3   60                   RTS
8BF4   00                   BRK
8BF5   08                   PHP
8BF6   7D 08 9A             ADC $9A08,X
8BF9   52                   ???                ;01010010 'R'
8BFA   08                   PHP
8BFB   9D 70 AC             STA $AC70,X
8BFE   D7                   ???                ;11010111
8BFF   C6 30                DEC $30
8C01   00                   BRK
8C02   08                   PHP
8C03   42                   ???                ;01000010 'B'
8C04   1F                   ???                ;00011111
8C05   F3                   ???                ;11110011
8C06   FF                   ???                ;11111111
8C07   7F                   ???                ;01111111
8C08   E8                   INX
8C09   66 F0                ROR $F0
8C0B   C4 D1                CPY $D1
8C0D   7B                   ???                ;01111011 '{'
8C0E   18                   CLC
8C0F   00                   BRK

; -- ??? -----------------------------------------------------------------
8C10   A2 0A      L8C10     LDX #$0A
8C12   A9 00                LDA #$00
8C14   9D AD 8C   L8C14     STA $8CAD,X
8C17   9D B8 8C             STA $8CB8,X
8C1A   CA                   DEX
8C1B   10 F7                BPL L8C14
8C1D   60                   RTS

; -- ??? -----------------------------------------------------------------
8C1E   AD C3 8C   L8C1E     LDA $8CC3
8C21   29 40                AND #$40
8C23   F0 16                BEQ L8C3B
8C25   BA                   TSX
8C26   BD 05 01             LDA $0105,X
8C29   85 15                STA $15
8C2B   BD 06 01             LDA $0106,X
8C2E   85 16                STA $16
8C30   A0 01                LDY #$01
8C32   B1 15      L8C32     LDA ($15),Y
8C34   F0 64                BEQ L8C9A
8C36   C9 FF                CMP #$FF
8C38   D0 03                BNE L8C3D
8C3A   60                   RTS
8C3B   18         L8C3B     CLC
8C3C   60                   RTS
8C3D   C9 02      L8C3D     CMP #$02
8C3F   D0 08                BNE L8C49
8C41   BD 04 01             LDA $0104,X
8C44   4A                   LSR A
8C45   B0 53                BCS L8C9A
8C47   90 4C                BCC L8C95
8C49   C9 01      L8C49     CMP #$01
8C4B   D0 1C                BNE L8C69
8C4D   BD 03 01             LDA $0103,X
8C50   C9 B1                CMP #$B1
8C52   90 41                BCC L8C95
8C54   C9 B8                CMP #$B8
8C56   B0 3D                BCS L8C95
8C58   38                   SEC
8C59   E9 B1                SBC #$B1
8C5B   20 E2 91             JSR L91E2
8C5E   A2 00                LDX #$00
8C60   A1 12                LDA ($12,X)
8C62   BA                   TSX
8C63   09 00                ORA #$00
8C65   D0 33                BNE L8C9A
8C67   F0 2C                BEQ L8C95
8C69   C9 80      L8C69     CMP #$80
8C6B   F0 28                BEQ L8C95
8C6D   C9 81                CMP #$81
8C6F   D0 03                BNE L8C74
8C71   C8                   INY
8C72   D0 21                BNE L8C95
8C74   09 00      L8C74     ORA #$00
8C76   30 16                BMI L8C8E
8C78   C8                   INY
8C79   09 80                ORA #$80
8C7B   38                   SEC
8C7C   E9 01                SBC #$01
8C7E   DD 03 01             CMP $0103,X
8C81   B0 12                BCS L8C95
8C83   B1 15                LDA ($15),Y
8C85   09 80                ORA #$80
8C87   DD 03 01             CMP $0103,X
8C8A   90 09                BCC L8C95
8C8C   B0 0C                BCS L8C9A
8C8E   B1 15      L8C8E     LDA ($15),Y
8C90   DD 03 01             CMP $0103,X
8C93   F0 05                BEQ L8C9A
8C95   C8         L8C95     INY
8C96   C8                   INY
8C97   C8                   INY
8C98   D0 98                BNE L8C32
8C9A   C8         L8C9A     INY
8C9B   38                   SEC
8C9C   B1 15                LDA ($15),Y
8C9E   E9 01                SBC #$01
8CA0   9D 05 01             STA $0105,X
8CA3   C8                   INY
8CA4   B1 15                LDA ($15),Y
8CA6   E9 00                SBC #$00
8CA8   9D 06 01             STA $0106,X
8CAB   18                   CLC
8CAC   60                   RTS

8CAD   00                   BRK                  ; variable
8CAE   00                   BRK
8CAF   00                   BRK
8CB0   00                   BRK
8CB1   00                   BRK
8CB2   00                   BRK
8CB3   00                   BRK
8CB4   00                   BRK
8CB5   00                   BRK
8CB6   00                   BRK
8CB7   00                   BRK
8CB8   00                   BRK
8CB9   00                   BRK
8CBA   00                   BRK
8CBB   00                   BRK
8CBC   00                   BRK
8CBD   00                   BRK
8CBE   00                   BRK
8CBF   00                   BRK
8CC0   00                   BRK
8CC1   00                   BRK
8CC2   00                   BRK
8CC3   00                   BRK
8CC4   00                   BRK
8CC5   18                   CLC
8CC6   60                   RTS
8CC7   AD C3 8C   L8CC7     LDA $8CC3
8CCA   8D 7A 8D             STA $8D7A
8CCD   AD C4 8C             LDA $8CC4
8CD0   8D 7B 8D             STA $8D7B
8CD3   20 98 8D             JSR L8D98
8CD6   C9 02                CMP #$02
8CD8   B0 01                BCS L8CDB
8CDA   60                   RTS
8CDB   18         L8CDB     CLC
8CDC   69 B1                ADC #$B1
8CDE   85 51                STA $51
8CE0   20 07 74             JSR L7407
8CE3   F3                   ???                ;11110011
8CE4   8D 60 F9             STA $F960
8CE7   F1 29                SBC ($29),Y
8CE9   A3                   ???                ;10100011
8CEA   FE FB DF             INC $DFFB,X
8CED   8B                   ???                ;10001011
8CEE   FE 80 A9             INC $A980,X
8CF1   00                   BRK
8CF2   85 50                STA $50
8CF4   20 0F 8B   L8CF4     JSR L8B0F
8CF7   12                   ???                ;00010010
8CF8   00                   BRK
8CF9   C9 9B                CMP #$9B
8CFB   F0 7F                BEQ L8D7C
8CFD   C9 B1                CMP #$B1
8CFF   90 F3                BCC L8CF4
8D01   C5 51                CMP $51
8D03   B0 EF                BCS L8CF4
8D05   38                   SEC
8D06   E9 B1                SBC #$B1
8D08   0A                   ASL A
8D09   AA                   TAX
8D0A   BD 30 D5             LDA $D530,X
8D0D   85 36                STA $36
8D0F   BD 31 D5             LDA $D531,X
8D12   85 37                STA $37
8D14   A0 78                LDY #$78
8D16   B1 36                LDA ($36),Y
8D18   F0 DA                BEQ L8CF4
8D1A   A5 50      L8D1A     LDA $50
8D1C   20 E2 91             JSR L91E2
8D1F   A0 78                LDY #$78
8D21   A9 00                LDA #$00
8D23   91 36                STA ($36),Y
8D25   88                   DEY
8D26   B1 36      L8D26     LDA ($36),Y
8D28   91 12                STA ($12),Y
8D2A   88                   DEY
8D2B   10 F9                BPL L8D26
8D2D   A6 12                LDX $12
8D2F   A4 13                LDY $13
8D31   20 1C 75             JSR L751C
8D34   20 8C 84             JSR L848C
8D37   C6 52                DEC $52
8D39   F0 2D                BEQ L8D68
8D3B   E6 50                INC $50
8D3D   A5 50                LDA $50
8D3F   18                   CLC
8D40   69 B1                ADC #$B1
8D42   20 8E 84             JSR L848E
8D45   A9 BE                LDA #$BE
8D47   20 8E 84             JSR L848E
8D4A   A5 52                LDA $52
8D4C   C9 02                CMP #$02
8D4E   B0 A4                BCS L8CF4
8D50   A2 00                LDX #$00
8D52   BD 30 D5   L8D52     LDA $D530,X
8D55   85 36                STA $36
8D57   BD 31 D5             LDA $D531,X
8D5A   85 37                STA $37
8D5C   A0 78                LDY #$78
8D5E   B1 36                LDA ($36),Y
8D60   D0 B8                BNE L8D1A
8D62   E8                   INX
8D63   E8                   INX
8D64   E0 0E                CPX #$0E
8D66   D0 EA                BNE L8D52
8D68   20 73 86   L8D68     JSR L8673
8D6B   AD 7A 8D             LDA $8D7A
8D6E   8D C3 8C             STA $8CC3
8D71   AD 7B 8D             LDA $8D7B
8D74   8D C4 8C             STA $8CC4
8D77   4C 81 FB             JMP $FB81
8D7A   00                   BRK
8D7B   00                   BRK
8D7C   20 16 6F   L8D7C     JSR L6F16
8D7F   84 8D                STY $8D
8D81   4C 68 8D             JMP L8D68
8D84   BD 30 D5             LDA $D530,X
8D87   85 38                STA $38
8D89   BD 31 D5             LDA $D531,X
8D8C   85 39                STA $39
8D8E   A0 77                LDY #$77
8D90   B1 38      L8D90     LDA ($38),Y
8D92   91 12                STA ($12),Y
8D94   88                   DEY
8D95   10 F9                BPL L8D90
8D97   60                   RTS
8D98   A5 96      L8D98     LDA $96
8D9A   F0 06                BEQ L8DA2
8D9C   20 38 92             JSR L9238
8D9F   20 C7 92             JSR L92C7
8DA2   A9 00      L8DA2     LDA #$00
8DA4   85 52                STA $52
8DA6   20 16 6F             JSR L6F16
8DA9   AC 8D 60             LDY $608D
8DAC   BD 30 D5             LDA $D530,X
8DAF   85 38                STA $38
8DB1   BD 31 D5             LDA $D531,X
8DB4   85 39                STA $39
8DB6   A0 78                LDY #$78
8DB8   A9 FF                LDA #$FF
8DBA   91 38                STA ($38),Y
8DBC   88                   DEY
8DBD   B1 12      L8DBD     LDA ($12),Y
8DBF   91 38                STA ($38),Y
8DC1   88                   DEY
8DC2   10 F9                BPL L8DBD
8DC4   C8                   INY
8DC5   B1 12                LDA ($12),Y
8DC7   F0 02                BEQ L8DCB
8DC9   E6 52                INC $52
8DCB   A5 52      L8DCB     LDA $52
8DCD   60                   RTS
8DCE   86 A5                STX $A5
8DD0   84 A6                STY $A6
8DD2   98                   TYA
8DD3   C5 A5                CMP $A5
8DD5   F0 20                BEQ L8DF7
8DD7   38                   SEC
8DD8   E5 A5                SBC $A5
8DDA   A2 00                LDX #$00
8DDC   DD 68 CD   L8DDC     CMP $CD68,X
8DDF   90 05                BCC L8DE6
8DE1   F0 03                BEQ L8DE6
8DE3   E8                   INX
8DE4   D0 F6                BNE L8DDC
8DE6   20 3E FF   L8DE6     JSR $FF3E
8DE9   3D 68 CD             AND $CD68,X
8DEC   18                   CLC
8DED   65 A5                ADC $A5
8DEF   B0 F5                BCS L8DE6
8DF1   C5 A6                CMP $A6
8DF3   90 02                BCC L8DF7
8DF5   D0 EF                BNE L8DE6
8DF7   60         L8DF7     RTS
8DF8   A6 0B      L8DF8     LDX $0B
8DFA   BD 08 CD             LDA $CD08,X
8DFD   85 0B                STA $0B
8DFF   60                   RTS
8E00   A6 0B      L8E00     LDX $0B
8E02   F0 09                BEQ L8E0D
8E04   CA                   DEX
8E05   F0 09                BEQ L8E10
8E07   CA                   DEX
8E08   F0 09                BEQ L8E13
8E0A   C6 0A                DEC $0A
8E0C   60                   RTS
8E0D   E6 09      L8E0D     INC $09
8E0F   60                   RTS
8E10   E6 0A      L8E10     INC $0A
8E12   60                   RTS
8E13   C6 09      L8E13     DEC $09
8E15   60                   RTS
8E16   20 AF 83   L8E16     JSR L83AF
8E19   20 53 86             JSR L8653
8E1C   20 FB 77             JSR L77FB
8E1F   20 F6 92             JSR L92F6
8E22   A5 2F                LDA $2F
8E24   D0 1C                BNE L8E42
8E26   20 16 6F             JSR L6F16
8E29   2E 8E 4C             ROL $4C8E
8E2C   36 79                ROL $79,X
8E2E   F0 11                BEQ L8E41
8E30   A9 04                LDA #$04
8E32   A0 2D                LDY #$2D
8E34   11 12                ORA ($12),Y
8E36   91 12                STA ($12),Y
8E38   A0 21                LDY #$21
8E3A   A9 00                LDA #$00
8E3C   91 12                STA ($12),Y
8E3E   C8                   INY
8E3F   91 12                STA ($12),Y
8E41   60         L8E41     RTS
8E42   AD C3 8C   L8E42     LDA $8CC3
8E45   29 02                AND #$02
8E47   F0 77                BEQ L8EC0
8E49   A5 6E                LDA $6E
8E4B   D0 73                BNE L8EC0
8E4D   A9 3C                LDA #$3C
8E4F   85 6E                STA $6E
8E51   A6 30                LDX $30
8E53   CA                   DEX
8E54   D0 02                BNE L8E58
8E56   A2 1F                LDX #$1F
8E58   86 30      L8E58     STX $30
8E5A   8A                   TXA
8E5B   4A                   LSR A
8E5C   4A                   LSR A
8E5D   4A                   LSR A
8E5E   4A                   LSR A
8E5F   29 01                AND #$01
8E61   49 01                EOR #$01
8E63   85 31                STA $31
8E65   A5 68                LDA $68
8E67   20 2A 8F             JSR L8F2A
8E6A   85 68                STA $68
8E6C   90 1B                BCC L8E89
8E6E   20 36 78             JSR L7836
8E71   A9 00                LDA #$00
8E73   85 6D                STA $6D
8E75   85 71                STA $71
8E77   A5 08                LDA $08
8E79   F0 0E                BEQ L8E89
8E7B   A5 5E                LDA $5E
8E7D   D0 0A                BNE L8E89
8E7F   AD 50 10             LDA $1050
8E82   29 20                AND #$20
8E84   D0 03                BNE L8E89
8E86   20 CA 81             JSR L81CA
8E89   A5 64      L8E89     LDA $64
8E8B   20 2A 8F             JSR L8F2A
8E8E   85 64                STA $64
8E90   90 03                BCC L8E95
8E92   20 5A 78             JSR L785A
8E95   A5 65      L8E95     LDA $65
8E97   20 2A 8F             JSR L8F2A
8E9A   85 65                STA $65
8E9C   90 03                BCC L8EA1
8E9E   20 DC 78             JSR L78DC
8EA1   A5 66      L8EA1     LDA $66
8EA3   20 2A 8F             JSR L8F2A
8EA6   85 66                STA $66
8EA8   90 03                BCC L8EAD
8EAA   20 83 78             JSR L7883
8EAD   A5 67      L8EAD     LDA $67
8EAF   20 2A 8F             JSR L8F2A
8EB2   85 67                STA $67
8EB4   90 0A                BCC L8EC0
8EB6   20 A0 78             JSR L78A0
8EB9   A9 00                LDA #$00
8EBB   85 75                STA $75
8EBD   20 81 FB             JSR $FB81
8EC0   AD C4 8C   L8EC0     LDA $8CC4
8EC3   29 20                AND #$20
8EC5   F0 3D                BEQ L8F04
8EC7   A5 5E                LDA $5E
8EC9   D0 39                BNE L8F04
8ECB   A5 6F                LDA $6F
8ECD   D0 2A                BNE L8EF9
8ECF   A9 0F                LDA #$0F
8ED1   85 6F                STA $6F
8ED3   20 0C 90             JSR L900C
8ED6   A5 72                LDA $72
8ED8   D0 08                BNE L8EE2
8EDA   A5 08                LDA $08
8EDC   D0 07                BNE L8EE5
8EDE   A5 31                LDA $31
8EE0   D0 03                BNE L8EE5
8EE2   20 7F 90   L8EE2     JSR L907F
8EE5   A5 96      L8EE5     LDA $96
8EE7   F0 09                BEQ L8EF2
8EE9   A5 9A                LDA $9A
8EEB   C9 04                CMP #$04
8EED   D0 03                BNE L8EF2
8EEF   20 7F 90             JSR L907F
8EF2   A5 34      L8EF2     LDA $34
8EF4   F0 03                BEQ L8EF9
8EF6   20 82 90             JSR L9082
8EF9   A5 70      L8EF9     LDA $70
8EFB   D0 07                BNE L8F04
8EFD   A9 10                LDA #$10
8EFF   85 70                STA $70
8F01   20 BF 90             JSR L90BF
8F04   AD C3 8C   L8F04     LDA $8CC3
8F07   4A                   LSR A
8F08   90 1E                BCC L8F28
8F0A   AD 06 FE             LDA $FE06
8F0D   D0 19                BNE L8F28
8F0F   A9 1E                LDA #$1E
8F11   8D 06 FE             STA $FE06
8F14   A5 96                LDA $96
8F16   F0 06                BEQ L8F1E
8F18   A5 9A                LDA $9A
8F1A   C9 01                CMP #$01
8F1C   F0 0A                BEQ L8F28
8F1E   20 3E FF   L8F1E     JSR $FF3E
8F21   D0 05                BNE L8F28
8F23   20 3E FF             JSR $FF3E
8F26   4A                   LSR A
8F27   60                   RTS
8F28   18         L8F28     CLC
8F29   60                   RTS
8F2A   F0 FC      L8F2A     BEQ L8F28
8F2C   C9 FF                CMP #$FF
8F2E   F0 F8                BEQ L8F28
8F30   38                   SEC
8F31   E9 01                SBC #$01
8F33   D0 F3                BNE L8F28
8F35   38                   SEC
8F36   60                   RTS
8F37   20 0F 8B   L8F37     JSR L8B0F
8F3A   52                   ???                ;01010010 'R'
8F3B   A0 01                LDY #$01
8F3D   45 8F                EOR $8F
8F3F   9B                   ???                ;10011011
8F40   43                   ???                ;01000011 'C'
8F41   8F                   ???                ;10001111
8F42   FF                   ???                ;11111111
8F43   38                   SEC
8F44   60                   RTS
8F45   38                   SEC
8F46   E9 B1                SBC #$B1
8F48   0A                   ASL A
8F49   AA                   TAX
8F4A   BC 22 D5             LDY $D522,X
8F4D   BD 23 D5             LDA $D523,X
8F50   18                   CLC
8F51   60                   RTS
8F52   A2 80      L8F52     LDX #$80
8F54   CA         L8F54     DEX
8F55   D0 FD                BNE L8F54
8F57   88                   DEY
8F58   D0 FA                BNE L8F54
8F5A   60                   RTS
8F5B   A9 FF                LDA #$FF
8F5D   8D A7 8F             STA $8FA7
8F60   A6 32                LDX $32
8F62   BD F4 8F             LDA $8FF4,X
8F65   C9 01                CMP #$01
8F67   F0 1B                BEQ L8F84
8F69   D0 09                BNE L8F74
8F6B   A2 00      L8F6B     LDX #$00
8F6D   8E A7 8F             STX $8FA7
8F70   C9 01                CMP #$01
8F72   F0 10                BEQ L8F84
8F74   A0 8C      L8F74     LDY #$8C
8F76   A6 96                LDX $96
8F78   F0 04                BEQ L8F7E
8F7A   A2 00                LDX #$00
8F7C   A0 24                LDY #$24
8F7E   CA         L8F7E     DEX
8F7F   D0 FD                BNE L8F7E
8F81   88                   DEY
8F82   D0 FA                BNE L8F7E
8F84   48         L8F84     PHA
8F85   20 F6 92             JSR L92F6
8F88   AD 07 FE             LDA $FE07
8F8B   20 04 90             JSR L9004
8F8E   8D 07 FE             STA $FE07
8F91   AD 05 FE             LDA $FE05
8F94   20 04 90             JSR L9004
8F97   8D 05 FE             STA $FE05
8F9A   20 AF 83             JSR L83AF
8F9D   20 FB 77             JSR L77FB
8FA0   20 3B FF             JSR $FF3B
8FA3   AA                   TAX
8FA4   10 47                BPL L8FED
8FA6   A0 00                LDY #$00
8FA8   F0 43                BEQ L8FED
8FAA   E0 9B                CPX #$9B
8FAC   D0 09                BNE L8FB7
8FAE   20 30 FF             JSR $FF30
8FB1   20 20 91             JSR L9120
8FB4   4C ED 8F             JMP L8FED
8FB7   E0 88      L8FB7     CPX #$88
8FB9   F0 1D                BEQ L8FD8
8FBB   E0 95                CPX #$95
8FBD   D0 2E                BNE L8FED
8FBF   20 30 FF             JSR $FF30
8FC2   A6 32                LDX $32
8FC4   E0 0F                CPX #$0F
8FC6   F0 25                BEQ L8FED
8FC8   E6 32                INC $32
8FCA   20 0A 74             JSR L740A
8FCD   FF                   ???                ;11111111
8FCE   3E 38 A5             ROL $A538,X
8FD1   33                   ???                ;00110011 '3'
8FD2   47                   ???                ;01000111 'G'
8FD3   FD 77 A0             SBC $A077,X
8FD6   90 15                BCC L8FED
8FD8   20 30 FF   L8FD8     JSR $FF30
8FDB   A6 32                LDX $32
8FDD   F0 0E                BEQ L8FED
8FDF   C6 32                DEC $32
8FE1   20 0A 74             JSR L740A
8FE4   FF                   ???                ;11111111
8FE5   3E 93 1F             ROL $1F93,X
8FE8   63                   ???                ;01100011 'c'
8FE9   47                   ???                ;01000111 'G'
8FEA   FD 77 A0             SBC $A077,X
8FED   68         L8FED     PLA
8FEE   38                   SEC
8FEF   E9 01                SBC #$01
8FF1   D0 81                BNE L8F74
8FF3   60                   RTS
8FF4   18                   CLC
8FF5   14                   ???                ;00010100
8FF6   10 0C                BPL L9004
8FF8   0A                   ASL A
8FF9   08                   PHP
8FFA   06 04                ASL $04
8FFC   02                   ???                ;00000010
8FFD   01 03                ORA ($03,X)
8FFF   01 03                ORA ($03,X)
9001   01 03                ORA ($03,X)
9003   01 38                ORA ($38,X)
9005   E9 03                SBC #$03
9007   B0 02                BCS L900B
9009   A9 00                LDA #$00
900B   60         L900B     RTS
900C   20 16 6F   L900C     JSR L6F16
900F   12                   ???                ;00010010
9010   90 60                BCC L9072
9012   F0 FD                BEQ L9011
9014   8A                   TXA
9015   48                   PHA
9016   4A                   LSR A
9017   AA                   TAX
9018   A9 02                LDA #$02
901A   20 83 6F             JSR L6F83
901D   B0 10                BCS L902F
901F   D0 0E                BNE L902F
9021   A9 25                LDA #$25
9023   8D 29 03             STA $0329
9026   68                   PLA
9027   48                   PHA
9028   AA                   TAX
9029   20 E4 91             JSR L91E4
902C   20 8F 90             JSR L908F
902F   68         L902F     PLA
9030   48                   PHA
9031   4A                   LSR A
9032   AA                   TAX
9033   A9 0D                LDA #$0D
9035   20 83 6F             JSR L6F83
9038   B0 19                BCS L9053
903A   D0 17                BNE L9053
903C   A9 25                LDA #$25
903E   8D 29 03             STA $0329
9041   68                   PLA
9042   48                   PHA
9043   AA                   TAX
9044   20 E4 91             JSR L91E4
9047   20 8F 90             JSR L908F
904A   68                   PLA
904B   48                   PHA
904C   AA                   TAX
904D   20 E4 91             JSR L91E4
9050   20 8F 90             JSR L908F
9053   68         L9053     PLA
9054   48                   PHA
9055   4A                   LSR A
9056   AA                   TAX
9057   A5 96                LDA $96
9059   F0 0A                BEQ L9065
905B   E4 99                CPX $99
905D   D0 06                BNE L9065
905F   A5 9A                LDA $9A
9061   C9 03                CMP #$03
9063   F0 09                BEQ L906E
9065   A9 01      L9065     LDA #$01
9067   20 83 6F             JSR L6F83
906A   B0 10                BCS L907C
906C   D0 0E                BNE L907C
906E   A9 21      L906E     LDA #$21
9070   8D 29 03             STA $0329
9073   68                   PLA
9074   48                   PHA
9075   AA                   TAX
9076   20 E4 91             JSR L91E4
9079   20 8F 90             JSR L908F
907C   68         L907C     PLA
907D   AA                   TAX
907E   60                   RTS
907F   A9 25      L907F     LDA #$25
9081   2C A9 21             BIT $21A9
9084   8D 29 03             STA $0329
9087   20 16 6F             JSR L6F16
908A   8D 90 60             STA $6090
908D   F0 FD                BEQ L908C
908F   A0 2D      L908F     LDY #$2D
9091   B1 12                LDA ($12),Y
9093   29 0C                AND #$0C
9095   D0 27                BNE L90BE
9097   AC 29 03             LDY $0329
909A   B1 12                LDA ($12),Y
909C   C8                   INY
909D   C8                   INY
909E   D1 12                CMP ($12),Y
90A0   88                   DEY
90A1   B1 12                LDA ($12),Y
90A3   C8                   INY
90A4   C8                   INY
90A5   F1 12                SBC ($12),Y
90A7   B0 15                BCS L90BE
90A9   AC 29 03             LDY $0329
90AC   B1 12                LDA ($12),Y
90AE   69 01                ADC #$01
90B0   91 12                STA ($12),Y
90B2   C8                   INY
90B3   B1 12                LDA ($12),Y
90B5   69 00                ADC #$00
90B7   91 12                STA ($12),Y
90B9   8A                   TXA
90BA   4A                   LSR A
90BB   4C 93 FB             JMP $FB93
90BE   60         L90BE     RTS
90BF   A9 00      L90BF     LDA #$00
90C1   85 B2                STA $B2
90C3   20 16 6F             JSR L6F16
90C6   D5 90                CMP $90,X
90C8   A5 B2                LDA $B2
90CA   F0 08                BEQ L90D4
90CC   20 5E 6F             JSR L6F5E
90CF   90 03                BCC L90D4
90D1   4C 36 79             JMP L7936
90D4   60         L90D4     RTS
90D5   F0 40                BEQ L9117
90D7   A0 2D                LDY #$2D
90D9   B1 12                LDA ($12),Y
90DB   29 01                AND #$01
90DD   F0 38                BEQ L9117
90DF   8A                   TXA
90E0   48                   PHA
90E1   A6 29                LDX $29
90E3   A0 21                LDY #$21
90E5   38                   SEC
90E6   B1 12                LDA ($12),Y
90E8   FD 18 91             SBC $9118,X
90EB   91 12                STA ($12),Y
90ED   AA                   TAX
90EE   C8                   INY
90EF   B1 12                LDA ($12),Y
90F1   E9 00                SBC #$00
90F3   91 12                STA ($12),Y
90F5   90 05                BCC L90FC
90F7   D0 16                BNE L910F
90F9   8A                   TXA
90FA   D0 13                BNE L910F
90FC   A9 00      L90FC     LDA #$00
90FE   91 12                STA ($12),Y
9100   88                   DEY
9101   91 12                STA ($12),Y
9103   A0 2D                LDY #$2D
9105   B1 12                LDA ($12),Y
9107   29 FE                AND #$FE
9109   09 04                ORA #$04
910B   91 12                STA ($12),Y
910D   E6 B2                INC $B2
910F   68         L910F     PLA
9110   48                   PHA
9111   4A                   LSR A
9112   20 93 FB             JSR $FB93
9115   68                   PLA
9116   AA                   TAX
9117   60         L9117     RTS
9118   01 02                ORA ($02,X)
911A   04                   ???                ;00000100
911B   06 08                ASL $08
911D   0A                   ASL A
911E   10 14                BPL L9134
9120   20 0A 74   L9120     JSR L740A
9123   FE 5E 80             INC $805E,X
9126   A9 25                LDA #$25
9128   39 1F CF             AND $CF1F,Y
912B   BD E8 00             LDA $00E8,X
912E   2C 4E 03             BIT $034E
9131   50 04                BVC L9137
9133   A9 81                LDA #$81
9135   85 BA                STA $BA
9137   20 30 FF   L9137     JSR $FF30
913A   30 0D                BMI L9149
913C   20 08 FE             JSR $FE08
913F   20 C9 81             JSR L81C9
9142   20 08 FE             JSR $FE08
9145   C9 80                CMP #$80
9147   D0 EE                BNE L9137
9149   2C 4E 03   L9149     BIT $034E
914C   50 08                BVC L9156
914E   A9 82                LDA #$82
9150   85 BA                STA $BA
9152   24 BA      L9152     BIT $BA
9154   30 FC                BMI L9152
9156   60         L9156     RTS
9157   A9 00                LDA #$00
9159   85 A3                STA $A3
915B   85 A4                STA $A4
915D   A5 9F      L915D     LDA $9F
915F   85 A9                STA $A9
9161   A5 A0                LDA $A0
9163   85 AA                STA $AA
9165   A9 00                LDA #$00
9167   85 9B                STA $9B
9169   85 9C                STA $9C
916B   85 9D                STA $9D
916D   85 9E                STA $9E
916F   A0 10                LDY #$10
9171   06 9B      L9171     ASL $9B
9173   26 9C                ROL $9C
9175   26 9D                ROL $9D
9177   26 9E                ROL $9E
9179   06 A9                ASL $A9
917B   26 AA                ROL $AA
917D   90 19                BCC L9198
917F   18                   CLC
9180   A5 A1                LDA $A1
9182   65 9B                ADC $9B
9184   85 9B                STA $9B
9186   A5 A2                LDA $A2
9188   65 9C                ADC $9C
918A   85 9C                STA $9C
918C   A5 A3                LDA $A3
918E   65 9D                ADC $9D
9190   85 9D                STA $9D
9192   A5 A4                LDA $A4
9194   65 9E                ADC $9E
9196   85 9E                STA $9E
9198   88         L9198     DEY
9199   D0 D6                BNE L9171
919B   60                   RTS
919C   A9 00                LDA #$00
919E   85 A5                STA $A5
91A0   85 A6                STA $A6
91A2   85 A7                STA $A7
91A4   85 A8                STA $A8
91A6   A0 20                LDY #$20
91A8   06 9B      L91A8     ASL $9B
91AA   26 9C                ROL $9C
91AC   26 9D                ROL $9D
91AE   26 9E                ROL $9E
91B0   26 A5                ROL $A5
91B2   26 A6                ROL $A6
91B4   26 A7                ROL $A7
91B6   26 A8                ROL $A8
91B8   38                   SEC
91B9   A5 A5                LDA $A5
91BB   E5 9F                SBC $9F
91BD   85 A9                STA $A9
91BF   A5 A6                LDA $A6
91C1   E5 A0                SBC $A0
91C3   85 AA                STA $AA
91C5   A5 A7                LDA $A7
91C7   E9 00                SBC #$00
91C9   AA                   TAX
91CA   A5 A8                LDA $A8
91CC   E9 00                SBC #$00
91CE   90 0E                BCC L91DE
91D0   85 A8                STA $A8
91D2   86 A7                STX $A7
91D4   A5 AA                LDA $AA
91D6   85 A6                STA $A6
91D8   A5 A9                LDA $A9
91DA   85 A5                STA $A5
91DC   E6 9B                INC $9B
91DE   88         L91DE     DEY
91DF   D0 C7                BNE L91A8
91E1   60                   RTS
91E2   0A         L91E2     ASL A
91E3   AA                   TAX
91E4   BD 22 D5   L91E4     LDA $D522,X
91E7   85 12                STA $12
91E9   BD 23 D5             LDA $D523,X
91EC   85 13                STA $13
91EE   60                   RTS
91EF   A8                   TAY
91F0   A5 BD                LDA $BD
91F2   48                   PHA
91F3   98                   TYA
91F4   20 44 92             JSR L9244
91F7   18                   CLC
91F8   69 08                ADC #$08
91FA   85 BA                STA $BA
91FC   48                   PHA
91FD   20 AF 83   L91FD     JSR L83AF
9200   20 53 86             JSR L8653
9203   20 FB 77             JSR L77FB
9206   20 F6 92             JSR L92F6
9209   68                   PLA
920A   48                   PHA
920B   45 BA                EOR $BA
920D   0A                   ASL A
920E   F0 ED                BEQ L91FD
9210   68                   PLA
9211   68                   PLA
9212   85 BD                STA $BD
9214   A9 00                LDA #$00
9216   85 96                STA $96
9218   60                   RTS
9219   20 44 92   L9219     JSR L9244
921C   48                   PHA
921D   20 38 92             JSR L9238
9220   68                   PLA
9221   AA                   TAX
9222   20 3A 92             JSR L923A
9225   A9 FF                LDA #$FF
9227   85 96                STA $96
9229   60         L9229     RTS
922A   C5 99      L922A     CMP $99
922C   D0 FB                BNE L9229
922E   A5 96                LDA $96
9230   F0 F7                BEQ L9229
9232   20 38 92             JSR L9238
9235   4C C7 92             JMP L92C7
9238   A2 80      L9238     LDX #$80
923A   86 BA      L923A     STX $BA
923C   20 F6 92   L923C     JSR L92F6
923F   A6 BA                LDX $BA
9241   30 F9                BMI L923C
9243   60                   RTS
9244   48         L9244     PHA
9245   20 BB 6F             JSR L6FBB
9248   B0 0B                BCS L9255
924A   8A                   TXA
924B   A2 0E                LDX #$0E
924D   DD 61 92   L924D     CMP $9261,X
9250   F0 05                BEQ L9257
9252   CA                   DEX
9253   10 F8                BPL L924D
9255   A2 00      L9255     LDX #$00
9257   BD 70 92   L9257     LDA $9270,X
925A   85 BD                STA $BD
925C   68                   PLA
925D   18                   CLC
925E   69 84                ADC #$84
9260   60                   RTS
9261   29 46                AND #$46
9263   5E 82 C2             LSR $C282,X
9266   D1 14                CMP ($14),Y
9268   D2                   ???                ;11010010
9269   DE 1E 47             DEC $471E,X
926C   5B                   ???                ;01011011 '['
926D   BA                   TSX
926E   F8                   SED
926F   5D 00 00             EOR $0000,X
9272   00                   BRK
9273   00                   BRK
9274   00                   BRK
9275   00                   BRK
9276   01 01                ORA ($01,X)
9278   01 02                ORA ($02,X)
927A   02                   ???                ;00000010
927B   02                   ???                ;00000010
927C   02                   ???                ;00000010
927D   02                   ???                ;00000010
927E   03                   ???                ;00000011
927F   20 BC 78   L927F     JSR L78BC
9282   A5 99                LDA $99
9284   20 E2 91             JSR L91E2
9287   A6 29                LDX $29
9289   A5 9A                LDA $9A
928B   C9 02                CMP #$02
928D   F0 16                BEQ L92A5
928F   C9 06                CMP #$06
9291   F0 12                BEQ L92A5
9293   C9 05                CMP #$05
9295   F0 01                BEQ L9298
9297   60                   RTS
9298   A9 05      L9298     LDA #$05
929A   85 6D                STA $6D
929C   A9 FF                LDA #$FF
929E   85 68                STA $68
92A0   85 71                STA $71
92A2   4C 2C 78             JMP L782C
92A5   A0 1E      L92A5     LDY #$1E
92A7   B1 12                LDA ($12),Y
92A9   D0 0C                BNE L92B7
92AB   88                   DEY
92AC   B1 12                LDA ($12),Y
92AE   4A                   LSR A
92AF   4A                   LSR A
92B0   18                   CLC
92B1   69 01                ADC #$01
92B3   C9 0F                CMP #$0F
92B5   90 02                BCC L92B9
92B7   A9 0F      L92B7     LDA #$0F
92B9   85 78      L92B9     STA $78
92BB   4C 81 FB             JMP $FB81
92BE   A5 96      L92BE     LDA $96
92C0   F0 04                BEQ L92C6
92C2   A5 BA                LDA $BA
92C4   F0 01                BEQ L92C7
92C6   60         L92C6     RTS
92C7   20 BA 78   L92C7     JSR L78BA
92CA   A9 00                LDA #$00
92CC   85 98                STA $98
92CE   85 96                STA $96
92D0   A6 9A                LDX $9A
92D2   E0 05                CPX #$05
92D4   F0 09                BEQ L92DF
92D6   E0 02                CPX #$02
92D8   F0 17                BEQ L92F1
92DA   E0 06                CPX #$06
92DC   F0 13                BEQ L92F1
92DE   60         L92DE     RTS
92DF   85 68      L92DF     STA $68
92E1   85 6D                STA $6D
92E3   20 36 78             JSR L7836
92E6   A5 08                LDA $08
92E8   F0 F4                BEQ L92DE
92EA   A5 5E                LDA $5E
92EC   D0 F0                BNE L92DE
92EE   4C CA 81             JMP L81CA
92F1   85 78      L92F1     STA $78
92F3   4C 81 FB             JMP $FB81
92F6   60         L92F6     RTS
                            .END

;auto-generated symbols and labels
 L6600      $6600
 L6628      $6628
 L6654      $6654
 L6700      $6700
 L6728      $6728
 L6739      $6739
 L6831      $6831
 L6865      $6865
 L6877      $6877
 L6880      $6880
 L6891      $6891
 L6908      $6908
 L6914      $6914
 L6917      $6917
 L6960      $6960
 L6976      $6976
 L6993      $6993
 L7037      $7037
 L7045      $7045
 L7052      $7052
 L7059      $7059
 L7063      $7063
 L7072      $7072
 L7078      $7078
 L7079      $7079
 L7084      $7084
 L7092      $7092
 L7113      $7113
 L7138      $7138
 L7144      $7144
 L7153      $7153
 L7194      $7194
 L7204      $7204
 L7207      $7207
 L7208      $7208
 L7246      $7246
 L7256      $7256
 L7258      $7258
 L7278      $7278
 L7285      $7285
 L7292      $7292
 L7294      $7294
 L7295      $7295
 L7326      $7326
 L7331      $7331
 L7367      $7367
 L7382      $7382
 L7384      $7384
 L7407      $7407
 L7412      $7412
 L7419      $7419
 L7422      $7422
 L7431      $7431
 L7439      $7439
 L7450      $7450
 L7465      $7465
 L7484      $7484
 L7498      $7498
 L7503      $7503
 L7513      $7513
 L7525      $7525
 L7532      $7532
 L7540      $7540
 L7543      $7543
 L7551      $7551
 L7567      $7567
 L7579      $7579
 L7589      $7589
 L7598      $7598
 L7658      $7658
 L7672      $7672
 L7683      $7683
 L7689      $7689
 L7709      $7709
 L7738      $7738
 L7752      $7752
 L7794      $7794
 L7808      $7808
 L7817      $7817
 L7829      $7829
 L7836      $7836
 L7856      $7856
 L7871      $7871
 L7883      $7883
 L7916      $7916
 L7919      $7919
 L7936      $7936
 L8014      $8014
 L8038      $8038
 L8122      $8122
 L8130      $8130
 L8140      $8140
 L8147      $8147
 L8179      $8179
 L8184      $8184
 L8201      $8201
 L8203      $8203
 L8218      $8218
 L8232      $8232
 L8248      $8248
 L8299      $8299
 L8330      $8330
 L8332      $8332
 L8346      $8346
 L8349      $8349
 L8352      $8352
 L8358      $8358
 L8365      $8365
 L8418      $8418
 L8430      $8430
 L8432      $8432
 L8464      $8464
 L8471      $8471
 L8488      $8488
 L8489      $8489
 L8520      $8520
 L8527      $8527
 L8534      $8534
 L8564      $8564
 L8566      $8566
 L8583      $8583
 L8596      $8596
 L8602      $8602
 L8605      $8605
 L8653      $8653
 L8670      $8670
 L8673      $8673
 L8678      $8678
 L8701      $8701
 L8715      $8715
 L8735      $8735
 L8747      $8747
 L8772      $8772
 L8794      $8794
 L8828      $8828
 L8877      $8877
 L8882      $8882
 L8911      $8911
 L8958      $8958
 L8985      $8985
 L8994      $8994
 L8999      $8999
 L9004      $9004
 L9011      $9011
 L9053      $9053
 L9065      $9065
 L9072      $9072
 L9082      $9082
 L9117      $9117
 L9120      $9120
 L9134      $9134
 L9137      $9137
 L9149      $9149
 L9152      $9152
 L9156      $9156
 L9171      $9171
 L9198      $9198
 L9219      $9219
 L9229      $9229
 L9238      $9238
 L9244      $9244
 L9255      $9255
 L9257      $9257
 L9298      $9298
 L661E      $661E
 L668D      $668D
 L661B      $661B
 L687A      $687A
 L663F      $663F
 L665C      $665C
 L68B9      $68B9
 L667C      $667C
 L67AD      $67AD
 L666B      $666B
 L668A      $668A
 L66E2      $66E2
 L66CF      $66CF
 L66D7      $66D7
 L66DD      $66DD
 L66AB      $66AB
 L67B9      $67B9
 L685C      $685C
 L673F      $673F
 L67A7      $67A7
 L82B8      $82B8
 L676C      $676C
 L67C8      $67C8
 L67B8      $67B8
 L67C7      $67C7
 L67FB      $67FB
 L67BE      $67BE
 L6A70      $6A70
 L67FA      $67FA
 L680C      $680C
 L6F0D      $6F0D
 L686D      $686D
 L68B8      $68B8
 L68C8      $68C8
 L68DF      $68DF
 L690E      $690E
 L68F7      $68F7
 L81CA      $81CA
 L6A40      $6A40
 L692C      $692C
 L6AA4      $6AA4
 L69A7      $69A7
 L695F      $695F
 L69FC      $69FC
 L696A      $696A
 L6A5A      $6A5A
 L69B7      $69B7
 L6AAC      $6AAC
 L69F9      $69F9
 L69E8      $69E8
 L69CB      $69CB
 L69E5      $69E5
 L69DB      $69DB
 L69EE      $69EE
 L6A4B      $6A4B
 L6A2D      $6A2D
 L6A33      $6A33
 L6A24      $6A24
 L6A42      $6A42
 L6A4F      $6A4F
 L6AB9      $6AB9
 L91E2      $91E2
 L6ACC      $6ACC
 L667D      $667D
 L6AE3      $6AE3
 L6AF3      $6AF3
 L8B0F      $8B0F
 L6B4E      $6B4E
 L6B28      $6B28
 L6B38      $6B38
 L6B2B      $6B2B
 L6B5C      $6B5C
 L6ABA      $6ABA
 L6E5D      $6E5D
 L6B67      $6B67
 L6B85      $6B85
 L6B6E      $6B6E
 L8F37      $8F37
 L6BC9      $6BC9
 L6B49      $6B49
 L6FBB      $6FBB
 L6BEB      $6BEB
 L6BC6      $6BC6
 L6F83      $6F83
 L6C12      $6C12
 L6C0E      $6C0E
 L6C57      $6C57
 L848E      $848E
 L848C      $848C
 L6C25      $6C25
 L6C83      $6C83
 L740A      $740A
 L6CD2      $6CD2
 L922A      $922A
 L6CC8      $6CC8
 L927F      $927F
 L6CD6      $6CD6
 L6E60      $6E60
 L6D3B      $6D3B
 L6D77      $6D77
 L6D44      $6D44
 L6D54      $6D54
 L6D4E      $6D4E
 L6D56      $6D56
 L91E4      $91E4
 L6D6C      $6D6C
 L6D5C      $6D5C
 L6D80      $6D80
 L6D67      $6D67
 L6E09      $6E09
 L876F      $876F
 L6E19      $6E19
 L6E0B      $6E0B
 L6DF8      $6DF8
 L70CA      $70CA
 L711E      $711E
 L6E5B      $6E5B
 L6E52      $6E52
 L78F9      $78F9
 L6E78      $6E78
 L6E9D      $6E9D
 L6E42      $6E42
 L6EA4      $6EA4
 L6EA6      $6EA6
 L6F14      $6F14
 L6EBF      $6EBF
 L6EE1      $6EE1
 L731A      $731A
 L6EC6      $6EC6
 L6EDD      $6EDD
 L6F04      $6F04
 L6E8E      $6E8E
 L6F34      $6F34
 L6F16      $6F16
 L6FBE      $6FBE
 L6F4F      $6F4F
 L6F77      $6F77
 L6F7F      $6F7F
 L6F60      $6F60
 L6FB7      $6FB7
 L6FB0      $6FB0
 L6F9B      $6F9B
 L6FDE      $6FDE
 L6FDD      $6FDD
 L6FC1      $6FC1
 L6FFD      $6FFD
 L706F      $706F
 L703E      $703E
 L704C      $704C
 L706C      $706C
 L707E      $707E
 L708C      $708C
 L705B      $705B
 L701A      $701A
 L6FD5      $6FD5
 L6FD9      $6FD9
 L80C6      $80C6
 L703F      $703F
 L708A      $708A
 L70BE      $70BE
 L746F      $746F
 L70BD      $70BD
 L70B6      $70B6
 L70A2      $70A2
 L70C9      $70C9
 L70DB      $70DB
 L70DE      $70DE
 L70DD      $70DD
 L710F      $710F
 L70FF      $70FF
 L70F9      $70F9
 L719A      $719A
 L70F5      $70F5
 L713A      $713A
 L717C      $717C
 L717E      $717E
 L716F      $716F
 L71C6      $71C6
 L71B4      $71B4
 L71DB      $71DB
 L720B      $720B
 L721C      $721C
 L722E      $722E
 L723B      $723B
 L728E      $728E
 L72C4      $72C4
 L72D9      $72D9
 L72CE      $72CE
 L72DD      $72DD
 L72E1      $72E1
 L736D      $736D
 L735F      $735F
 L85C5      $85C5
 L73AB      $73AB
 L739C      $739C
 L73B4      $73B4
 L73FD      $73FD
 L915D      $915D
 L73C7      $73C7
 L73F7      $73F7
 L73FF      $73FF
 L745D      $745D
 L743C      $743C
 L74FA      $74FA
 L746D      $746D
 L74F7      $74F7
 L749E      $749E
 L750D      $750D
 L74FE      $74FE
 L753E      $753E
 L753B      $753B
 L754B      $754B
 L757E      $757E
 L75BC      $75BC
 L759A      $759A
 L75B1      $75B1
 L75A5      $75A5
 L75C1      $75C1
 L75D1      $75D1
 L75E2      $75E2
 L75F1      $75F1
 L75F4      $75F4
 L760A      $760A
 L765F      $765F
 L766A      $766A
 L766C      $766C
 L71AF      $71AF
 L76B8      $76B8
 L76E1      $76E1
 L76EB      $76EB
 L773A      $773A
 L774D      $774D
 L775F      $775F
 L76F5      $76F5
 L76C0      $76C0
 L77B6      $77B6
 L77BF      $77BF
 L77D7      $77D7
 L77E6      $77E6
 L778F      $778F
 L780B      $780B
 L782C      $782C
 L781E      $781E
 L784D      $784D
 L92BE      $92BE
 L78F0      $78F0
 L787A      $787A
 L78AC      $78AC
 L789F      $789F
 L78DD      $78DD
 L78DC      $78DC
 L78F6      $78F6
 L791C      $791C
 L78FD      $78FD
 L8F6B      $8F6B
 L7ACC      $7ACC
 L799B      $799B
 L79B7      $79B7
 L7A08      $7A08
 L79CE      $79CE
 L79DC      $79DC
 L79FA      $79FA
 L79E7      $79E7
 L7A0D      $7A0D
 L7A05      $7A05
 L7AE9      $7AE9
 L7A3D      $7A3D
 L7A1D      $7A1D
 L7AD8      $7AD8
 L7A24      $7A24
 L7A28      $7A28
 L7A2E      $7A2E
 L7AF3      $7AF3
 L7AFE      $7AFE
 L7BBB      $7BBB
 L7B41      $7B41
 L7E00      $7E00
 L7B64      $7B64
 L7B6B      $7B6B
 L7B49      $7B49
 L7B8D      $7B8D
 L7B9C      $7B9C
 L7B9F      $7B9F
 L81FD      $81FD
 L7BD8      $7BD8
 L7BCF      $7BCF
 L7BED      $7BED
 L662F      $662F
 L7BE8      $7BE8
 L7B78      $7B78
 L7BFD      $7BFD
 L7C83      $7C83
 L68C9      $68C9
 L80EF      $80EF
 L7D09      $7D09
 L7C92      $7C92
 L7CA7      $7CA7
 L7C85      $7C85
 L7CA8      $7CA8
 L7CFD      $7CFD
 L7CFF      $7CFF
 L7D05      $7D05
 L7D25      $7D25
 L6FE6      $6FE6
 L7D99      $7D99
 L715B      $715B
 L7D9F      $7D9F
 L751C      $751C
 L7D13      $7D13
 L7D46      $7D46
 L7D7D      $7D7D
 L7DEA      $7DEA
 L7DEB      $7DEB
 L7DDD      $7DDD
 L7DF8      $7DF8
 L7C90      $7C90
 L7E10      $7E10
 L7E0D      $7E0D
 L8DF8      $8DF8
 L8E00      $8E00
 L7E55      $7E55
 L7E47      $7E47
 L7E89      $7E89
 L7E75      $7E75
 L7E68      $7E68
 L7E72      $7E72
 L7EED      $7EED
 L7ED9      $7ED9
 L7EE8      $7EE8
 L7EF0      $7EF0
 L7F15      $7F15
 L7F06      $7F06
 L7F12      $7F12
 L7F3F      $7F3F
 L7F41      $7F41
 L7F49      $7F49
 L7F62      $7F62
 L7E7B      $7E7B
 L7F75      $7F75
 L7FA2      $7FA2
 L7FA5      $7FA5
 L7F93      $7F93
 L7FB1      $7FB1
 L7F8F      $7F8F
 L73B7      $73B7
 L7FC5      $7FC5
 L7FC9      $7FC9
 L7FD9      $7FD9
 L800F      $800F
 L801D      $801D
 L802A      $802A
 L803F      $803F
 L806D      $806D
 L805D      $805D
 L804D      $804D
 L6F4A      $6F4A
 L80B4      $80B4
 L80B1      $80B1
 L80E5      $80E5
 L80DB      $80DB
 L80CC      $80CC
 L80F7      $80F7
 L81A5      $81A5
 L81E1      $81E1
 L81CC      $81CC
 L81F3      $81F3
 L8AE6      $8AE6
 L824D      $824D
 L82AA      $82AA
 L82C1      $82C1
 L82CE      $82CE
 L831B      $831B
 L82E5      $82E5
 L82FA      $82FA
 L830F      $830F
 L831F      $831F
 L847D      $847D
 L838B      $838B
 L838E      $838E
 L83BC      $83BC
 L83C1      $83C1
 L83A9      $83A9
 L83D7      $83D7
 L83C7      $83C7
 L83D6      $83D6
 L83E9      $83E9
 L842E      $842E
 L839A      $839A
 L847C      $847C
 L84A2      $84A2
 L84B2      $84B2
 L84BE      $84BE
 L84D0      $84D0
 L84E7      $84E7
 L84C6      $84C6
 L851B      $851B
 L84EC      $84EC
 L850E      $850E
 L85B1      $85B1
 L85F8      $85F8
 L85F6      $85F6
 L860B      $860B
 L865C      $865C
 L862A      $862A
 L86B2      $86B2
 L8C10      $8C10
 L868D      $868D
 L86B4      $86B4
 L86E3      $86E3
 L873B      $873B
 L77FB      $77FB
 L83AA      $83AA
 L8F52      $8F52
 L86E1      $86E1
 L877F      $877F
 L87B5      $87B5
 L87C9      $87C9
 L87D5      $87D5
 L87EF      $87EF
 L87E2      $87E2
 L881C      $881C
 L88F9      $88F9
 L87E4      $87E4
 L8A60      $8A60
 L88A8      $88A8
 L92F6      $92F6
 L883E      $883E
 L88A0      $88A0
 L8A9B      $8A9B
 L88E5      $88E5
 L88C6      $88C6
 L88BA      $88BA
 L88CD      $88CD
 L88DB      $88DB
 L88EC      $88EC
 L890B      $890B
 L8A03      $8A03
 L88B8      $88B8
 L89AA      $89AA
 L8A33      $8A33
 L89C4      $89C4
 L8A0B      $8A0B
 L71A8      $71A8
 L89F2      $89F2
 L8A2D      $8A2D
 L8A18      $8A18
 L8A4D      $8A4D
 L8A54      $8A54
 L8A3F      $8A3F
 L8A88      $8A88
 L8A62      $8A62
 L8AC3      $8AC3
 L8A9D      $8A9D
 L8AE8      $8AE8
 L8B3D      $8B3D
 L81C9      $81C9
 L8B6C      $8B6C
 L8B4E      $8B4E
 L8B42      $8B42
 L8B76      $8B76
 L8BB1      $8BB1
 L8B90      $8B90
 L8BA4      $8BA4
 L8CC7      $8CC7
 L8BB7      $8BB7
 L8E16      $8E16
 L8BBF      $8BBF
 L8C1E      $8C1E
 L8BCC      $8BCC
 L8C14      $8C14
 L8C3B      $8C3B
 L8C9A      $8C9A
 L8C3D      $8C3D
 L8C49      $8C49
 L8C95      $8C95
 L8C69      $8C69
 L8C74      $8C74
 L8C8E      $8C8E
 L8C32      $8C32
 L8D98      $8D98
 L8CDB      $8CDB
 L8D7C      $8D7C
 L8CF4      $8CF4
 L8D26      $8D26
 L8D68      $8D68
 L8D1A      $8D1A
 L8D52      $8D52
 L8D90      $8D90
 L8DA2      $8DA2
 L92C7      $92C7
 L8DBD      $8DBD
 L8DCB      $8DCB
 L8DF7      $8DF7
 L8DE6      $8DE6
 L8DDC      $8DDC
 L8E0D      $8E0D
 L8E10      $8E10
 L8E13      $8E13
 L83AF      $83AF
 L8E42      $8E42
 L8E41      $8E41
 L8EC0      $8EC0
 L8E58      $8E58
 L8F2A      $8F2A
 L8E89      $8E89
 L8E95      $8E95
 L785A      $785A
 L8EA1      $8EA1
 L8EAD      $8EAD
 L78A0      $78A0
 L8F04      $8F04
 L8EF9      $8EF9
 L900C      $900C
 L8EE2      $8EE2
 L8EE5      $8EE5
 L907F      $907F
 L8EF2      $8EF2
 L90BF      $90BF
 L8F28      $8F28
 L8F1E      $8F1E
 L8F54      $8F54
 L8F84      $8F84
 L8F74      $8F74
 L8F7E      $8F7E
 L8FED      $8FED
 L8FB7      $8FB7
 L8FD8      $8FD8
 L900B      $900B
 L902F      $902F
 L908F      $908F
 L906E      $906E
 L907C      $907C
 L908C      $908C
 L90BE      $90BE
 L90D4      $90D4
 L6F5E      $6F5E
 L90FC      $90FC
 L910F      $910F
 L91DE      $91DE
 L91A8      $91A8
 L91FD      $91FD
 L923A      $923A
 L923C      $923C
 L924D      $924D
 L78BC      $78BC
 L92A5      $92A5
 L92B7      $92B7
 L92B9      $92B9
 L92C6      $92C6
 L78BA      $78BA
 L92DF      $92DF
 L92F1      $92F1
 L92DE      $92DE
