Dissassemble of sector $039 and $03a of character disk


                            * = $9222
9222   88                   DEY
9223   8D 6B 8C             STA $8C6B
9226   44                   ???                ;01000100 'D'
9227   44                   ???                ;01000100 'D'
9228   46 B8                LSR $B8
922A   C4 44                CPY $44
922C   46 B8                LSR $B8
922E   C4 44                CPY $44
9230   44                   ???                ;01000100 'D'
9231   6B                   ???                ;01101011 'k'
9232   8C 44 44             STY $4444
9235   6B                   ???                ;01101011 'k'
9236   8C 44 44             STY $4444
9239   6B                   ???                ;01101011 'k'
923A   8C 44 44             STY $4444
923D   6B                   ???                ;01101011 'k'
923E   8C 44 44             STY $4444
9241   6B                   ???                ;01101011 'k'
9242   8C 44 44             STY $4444
9245   6B                   ???                ;01101011 'k'
9246   8C 44 44             STY $4444
9249   6B                   ???                ;01101011 'k'
924A   8C 44 44             STY $4444
924D   6B                   ???                ;01101011 'k'
924E   8C 44 44             STY $4444
9251   6B                   ???                ;01101011 'k'
9252   8C 44 47             STY $4744
9255   85 10                STA $10
9257   2C 05 23             BIT $2305
925A   50 C0                BVC $921C
925C   FE 1A 01             INC $011A,X
925F   5A                   ???                ;01011010 'Z'
9260   B0 02                BCS L9264
9262   0D 07 86             ORA $8607
9265   22                   ???                ;00100010 '"'
9266   D1 16                CMP ($16),Y
9268   88                   DEY
9269   86 83                STX $83
926B   C3                   ???                ;11000011
926C   1F                   ???                ;00011111
926D   C1 C0                CMP ($C0,X)
926F   2F                   ???                ;00101111 '/'
9270   A0 83                LDY #$83
9272   41 E1                EOR ($E1,X)
9274   8F                   ???                ;10001111
9275   E1 00                SBC ($00,X)
9277   0D 07 86             ORA $8607
927A   3F                   ???                ;00111111 '?'
927B   84 00                STY $00
927D   34                   ???                ;00110100 '4'
927E   1E 18 FE             ASL $FE18,X
9281   10 00                BPL L9283
9283   D0 78      L9283     BNE L92FD
9285   62                   ???                ;01100010 'b'
9286   22                   ???                ;00100010 '"'
9287   22                   ???                ;00100010 '"'
9288   21 A0                AND ($A0,X)
928A   F3                   ???                ;11110011
928B   C6 62                DEC $62
928D   0F                   ???                ;00001111
928E   74                   ???                ;01110100 't'
928F   A7                   ???                ;10100111
9290   C1 56                CMP ($56,X)
9292   7E 0A A2             ROR $A20A,X
9295   2D 68 88             AND $8868
9298   88                   DEY
9299   8B                   ???                ;10001011
929A   5A                   ???                ;01011010 'Z'
929B   22                   ???                ;00100010 '"'
929C   22                   ???                ;00100010 '"'
929D   2D 68 88             AND $8868
92A0   88                   DEY
92A1   8B                   ???                ;10001011
92A2   5A                   ???                ;01011010 'Z'
92A3   22                   ???                ;00100010 '"'
92A4   22                   ???                ;00100010 '"'
92A5   2D 68 88             AND $8868
92A8   88                   DEY
92A9   B5 A2                LDA $A2,X
92AB   22                   ???                ;00100010 '"'
92AC   22                   ???                ;00100010 '"'
92AD   D6 88                DEC $88,X
92AF   88                   DEY
92B0   8B                   ???                ;10001011
92B1   5A                   ???                ;01011010 'Z'
92B2   22                   ???                ;00100010 '"'
92B3   22                   ???                ;00100010 '"'
92B4   2D 68 88             AND $8868
92B7   88                   DEY
92B8   B5 A2                LDA $A2,X
92BA   22                   ???                ;00100010 '"'
92BB   22                   ???                ;00100010 '"'
92BC   D6 88                DEC $88,X
92BE   88                   DEY
92BF   8B                   ???                ;10001011
92C0   5A                   ???                ;01011010 'Z'
92C1   22                   ???                ;00100010 '"'
92C2   20 55 F2             JSR $F255
92C5   29 4C                AND #$4C
92C7   DC         L92C7     ???                ;11011100
92C8   15 11                ORA $11,X
92CA   11 11                ORA ($11),Y
92CC   CF                   ???                ;11001111
92CD   31 11      L92CD     AND ($11),Y
92CF   11 19                ORA ($19),Y
92D1   05 43                ORA $43
92D3   AA                   TAX
92D4   52                   ???                ;01010010 'R'
92D5   BF                   ???                ;10111111
92D6   C2                   ???                ;11000010
92D7   00                   BRK
92D8   1D 52 95             ORA $9552,X
92DB   88                   DEY
92DC   88                   DEY
92DD   88                   DEY
92DE   75 3F                ADC $3F,X
92E0   82                   ???                ;10000010
92E1   90 EA                BCC L92CD
92E3   94 AF                STY $AF,X
92E5   F0 80                BEQ L9267
92E7   07                   ???                ;00000111
92E8   54                   ???                ;01010100 'T'
92E9   A5 7F                LDA $7F
92EB   84 00                STY $00
92ED   3A                   ???                ;00111010 ':'
92EE   A5 2B                LDA $2B
92F0   FC                   ???                ;11111100
92F1   20 01 D5             JSR $D501
92F4   29 58                AND #$58
92F6   88         L92F6     DEY
92F7   88                   DEY
92F8   87                   ???                ;10000111
92F9   54                   ???                ;01010100 'T'
92FA   D6 22                DEC $22,X
92FC   1F                   ???                ;00011111
92FD   FF         L92FD     ???                ;11111111
92FE   1F                   ???                ;00011111
92FF   E0 AE                CPX #$AE
9301   D8                   CLD
9302   6A                   ROR A
9303   8E F0 94             STX $94F0
9306   C9 FF                CMP #$FF
9308   D0 03                BNE L930D
930A   4C 16 94             JMP L9416
930D   20 07 74   L930D     JSR $7407
9310   F1 5E                SBC ($5E),Y
9312   1B                   ???                ;00011011
9313   BE 81 B2             LDX $B281,Y
9316   A4 90                LDY $90
9318   CD E1 90             CMP $90E1
931B   AA                   TAX
931C   60                   RTS
931D   DD F4 88             CMP $88F4,X
9320   50 26                BVC L9348
9322   9B                   ???                ;10011011
9323   FC                   ???                ;11111100
9324   77                   ???                ;01110111 'w'
9325   A0 20                LDY #$20
9327   10 7E                BPL L93A7
9329   90 01                BCC L932C
932B   60                   RTS
932C   46 D3      L932C     LSR $D3
932E   A2 00                LDX #$00
9330   A9 00                LDA #$00
9332   9D 00 B3   L9332     STA $B300,X
9335   9D 00 B4             STA $B400,X
9338   9D 00 B5             STA $B500,X
933B   9D 00 B6             STA $B600,X
933E   9D 00 B7             STA $B700,X
9341   9D 00 B8             STA $B800,X
9344   E8                   INX
9345   D0 EB                BNE L9332
9347   20 16 6F             JSR $6F16
934A   E0 93                CPX #$93
934C   A2 00                LDX #$00
934E   B5 00      L934E     LDA $00,X
9350   9D 00 B7             STA $B700,X
9353   E8                   INX
9354   D0 F8                BNE L934E
9356   AD F0 94             LDA $94F0
9359   8D 80 B8             STA $B880
935C   A6 0C                LDX $0C
935E   A5 08                LDA $08
9360   F0 09                BEQ L936B
9362   AE 51 10             LDX $1051
9365   BD 52 10             LDA $1052,X
9368   09 80                ORA #$80
936A   AA                   TAX
936B   8E 81 B8   L936B     STX $B881
936E   A9 FE      L936E     LDA #$FE
9370   20 B9 67             JSR $67B9
9373   A2 0B                LDX #$0B
9375   86 12                STX $12
9377   A9 B3                LDA #$B3
9379   85 9C                STA $9C
937B   A0 00      L937B     LDY #$00
937D   84 9B                STY $9B
937F   B1 9B      L937F     LDA ($9B),Y
9381   99 00 BA             STA $BA00,Y
9384   C8                   INY
9385   D0 F8                BNE L937F
9387   E6 9C                INC $9C
9389   B1 9B      L9389     LDA ($9B),Y
938B   99 00 BB             STA $BB00,Y
938E   C8                   INY
938F   D0 F8                BNE L9389
9391   E6 9C                INC $9C
9393   A6 12                LDX $12
9395   A0 01                LDY #$01
9397   20 83 6A             JSR $6A83
939A   B0 13                BCS L93AF
939C   E6 12                INC $12
939E   A5 12                LDA $12
93A0   C9 0E                CMP #$0E
93A2   90 D7                BCC L937B
93A4   AD F0 94             LDA $94F0
93A7   49 FF      L93A7     EOR #$FF
93A9   20 B9 67             JSR $67B9
93AC   4C 73 86             JMP $8673
93AF   20 07 74   L93AF     JSR $7407
93B2   F4                   ???                ;11110100
93B3   D2                   ???                ;11010010
93B4   68                   PLA
93B5   98                   TYA
93B6   29 14                AND #$14
93B8   82                   ???                ;10000010
93B9   33                   ???                ;00110011 '3'
93BA   19 C1 10             ORA $10C1,Y
93BD   6D 15 4C             ADC $4C15
93C0   C1 34                CMP ($34,X)
93C2   62                   ???                ;01100010 'b'
93C3   F8                   SED
93C4   E0 3E                CPX #$3E
93C6   22                   ???                ;00100010 '"'
93C7   4C 45 86             JMP $8645
93CA   D1 54                CMP ($54),Y
93CC   CC 18 45             CPY $4518
93CF   F3                   ???                ;11110011
93D0   31 26                AND ($26),Y
93D2   17                   ???                ;00010111
93D3   B8                   CLV
93D4   27                   ???                ;00100111 '''
93D5   63                   ???                ;01100011 'c'
93D6   E1 0B                SBC ($0B,X)
93D8   E0 00                CPX #$00
93DA   20 0D 6F             JSR $6F0D
93DD   4C 6E 93             JMP L936E
93E0   BD 08 94             LDA $9408,X
93E3   85 15                STA $15
93E5   BD 09 94             LDA $9409,X
93E8   85 16                STA $16
93EA   A0 77                LDY #$77
93EC   B1 12      L93EC     LDA ($12),Y
93EE   91 15                STA ($15),Y
93F0   88                   DEY
93F1   10 F9                BPL L93EC
93F3   60                   RTS
93F4   BD 08 94             LDA $9408,X
93F7   85 15                STA $15
93F9   BD 09 94             LDA $9409,X
93FC   85 16                STA $16
93FE   A0 77                LDY #$77
9400   B1 15      L9400     LDA ($15),Y
9402   91 12                STA ($12),Y
9404   88                   DEY
9405   10 F9                BPL L9400
9407   60                   RTS
9408   00                   BRK
9409   B3                   ???                ;10110011
940A   80                   ???                ;10000000
940B   B3                   ???                ;10110011
940C   00                   BRK
940D   B4 80                LDY $80,X
940F   B4 00                LDY $00,X
9411   B5 80                LDA $80,X
9413   B5 00                LDA $00,X
9415   B6 20                LDX $20,Y
9417   07                   ???                ;00000111
9418   74                   ???                ;01110100 't'
9419   F1 5E                SBC ($5E),Y
941B   1B                   ???                ;00011011
941C   BE 81 B2             LDX $B281,Y
941F   A4 90                LDY $90
9421   CD E1 89             CMP $89E1
9424   A5 37                LDA $37
9426   C4 C1                CPY $C1
9428   BB                   ???                ;10111011
9429   E9 10                SBC #$10
942B   B0 52                BCS L947F
942D   98                   TYA
942E   64                   ???                ;01100100 'd'
942F   2A                   ROL A
9430   98                   TYA
9431   A1 40                LDA ($40,X)
9433   9A                   TXS
9434   6F                   ???                ;01101111 'o'
9435   F1 DE                SBC ($DE),Y
9437   80                   ???                ;10000000
9438   20 10 7E             JSR $7E10
943B   90 01                BCC L943E
943D   60                   RTS
943E   20 A9 94   L943E     JSR L94A9
9441   20 16 6F             JSR $6F16
9444   F4                   ???                ;11110100
9445   93                   ???                ;10010011
9446   A2 00                LDX #$00
9448   BD 00 B7   L9448     LDA $B700,X
944B   95 00                STA $00,X
944D   E8                   INX
944E   D0 F8                BNE L9448
9450   A2 FF                LDX #$FF
9452   86 02                STX $02
9454   86 03                STX $03
9456   86 04                STX $04
9458   86 05                STX $05
945A   86 06                STX $06
945C   86 07                STX $07
945E   A5 BA                LDA $BA
9460   09 80                ORA #$80
9462   85 BA                STA $BA
9464   C9 84                CMP #$84
9466   90 03                BCC L946B
9468   20 BC 78             JSR $78BC
946B   A5 68      L946B     LDA $68
946D   F0 03                BEQ L9472
946F   20 2C 78             JSR $782C
9472   A5 64      L9472     LDA $64
9474   F0 03                BEQ L9479
9476   20 4D 78             JSR $784D
9479   A5 65      L9479     LDA $65
947B   F0 03                BEQ L9480
947D   20 CD 78             JSR $78CD
9480   A5 66      L9480     LDA $66
9482   F0 03                BEQ L9487
9484   20 71 78             JSR $7871
9487   A5 67      L9487     LDA $67
9489   F0 03                BEQ L948E
948B   20 A9 78             JSR $78A9
948E   20 81 FB   L948E     JSR $FB81
9491   20 73 86             JSR $8673
9494   AD 81 B8             LDA $B881
9497   10 09                BPL L94A2
9499   29 7F                AND #$7F
949B   85 35                STA $35
949D   A9 01                LDA #$01
949F   4C 00 66             JMP $6600
94A2   85 0C      L94A2     STA $0C
94A4   A9 00                LDA #$00
94A6   4C 00 66             JMP $6600
94A9   A9 FE      L94A9     LDA #$FE
94AB   20 B9 67             JSR $67B9
94AE   A2 0B                LDX #$0B
94B0   86 12                STX $12
94B2   A9 B3                LDA #$B3
94B4   85 9C                STA $9C
94B6   A6 12      L94B6     LDX $12
94B8   A0 01                LDY #$01
94BA   20 70 6A             JSR $6A70
94BD   B0 2B                BCS L94EA
94BF   A0 00                LDY #$00
94C1   84 9B                STY $9B
94C3   B9 00 BA   L94C3     LDA $BA00,Y
94C6   91 9B                STA ($9B),Y
94C8   C8                   INY
94C9   D0 F8                BNE L94C3
94CB   E6 9C                INC $9C
94CD   B9 00 BB   L94CD     LDA $BB00,Y
94D0   91 9B                STA ($9B),Y
94D2   C8                   INY
94D3   D0 F8                BNE L94CD
94D5   E6 9C                INC $9C
94D7   E6 12                INC $12
94D9   A5 12                LDA $12
94DB   C9 0E                CMP #$0E
94DD   90 D7                BCC L94B6
94DF   AD 80 B8             LDA $B880
94E2   8D F0 94             STA $94F0
94E5   49 FF                EOR #$FF
94E7   4C B9 67             JMP $67B9
94EA   20 FB 67   L94EA     JSR $67FB
94ED   4C A9 94             JMP L94A9
94F0   A5 96                LDA $96
94F2   F0 03                BEQ L94F7
94F4   20 C7 92             JSR L92C7
94F7   A9 80      L94F7     LDA #$80
94F9   85 BA                STA $BA
94FB   20 F6 92   L94FB     JSR L92F6
94FE   A5 BA                LDA $BA
9500   30 F9                BMI L94FB
9502   A2 04                LDX #$04
9504   B5 64      L9504     LDA $64,X
9506   F0 04                BEQ L950C
9508   A9 01                LDA #$01
950A   95 64                STA $64,X
950C   CA         L950C     DEX
950D   10 F5                BPL L9504
950F   A9 00                LDA #$00
9511   85 71                STA $71
9513   85 6E                STA $6E
9515   85 78                STA $78
9517   20 CD 78             JSR $78CD
951A   20 16 6F             JSR $6F16
951D   A0 B2                LDY #$B2
951F   20 81 FB             JSR $FB81
9522   A2 00                LDX #$00
9524   20 C9 68             JSR $68C9
9527   A9 B9                LDA #$B9
9529   85 38                STA $38
952B   A9 B0                LDA #$B0
952D   85 39                STA $39
952F   20 51 75             JSR $7551
9532   20 5A B2             JSR $B25A
9535   A9 80                LDA #$80
9537   8D 03 A9             STA $A903
953A   8D 06 A9             STA $A906
953D   8D 09 A9             STA $A909
9540   8D 0C A9             STA $A90C
9543   20 07 74             JSR $7407
9546   F4                   ???                ;11110100
9547   D2                   ???                ;11010010
9548   FA                   ???                ;11111010
9549   04                   ???                ;00000100
954A   51 98                EOR ($98),Y
954C   54                   ???                ;01010100 'T'
954D   E0 CD                CPX #$CD
954F   26 0F                ROL $0F
9551   88                   DEY
9552   26 C0                ROL $C0
9554   2F                   ???                ;00101111 '/'
9555   38                   SEC
9556   7D 25 8A             ADC $8A25,X
9559   22                   ???                ;00100010 '"'
955A   0F                   ???                ;00001111
955B   87                   ???                ;10000111
955C   11 1B                ORA ($1B),Y
955E   1D E8 00             ORA $00E8,X
9561   20 4A 6F             JSR $6F4A
9564   B0 12                BCS L9578
9566   20 0A 74             JSR $740A
9569   FB                   ???                ;11111011
956A   05 28                ORA $28
956C   44                   ???                ;01000100 'D'
956D   16 99                ASL $99,X
956F   A3                   ???                ;10100011
9570   34                   ???                ;00110100 '4'
9571   7A                   ???                ;01111010 'z'
9572   00                   BRK
9573   A9 C1                LDA #$C1
9575   8D 03 A9             STA $A903
9578   20 B1 B3   L9578     JSR $B3B1
957B   F0 16                BEQ L9593
957D   20 0A 74             JSR $740A
9580   FD 26 6B             SBC $6B26,X
9583   EA                   NOP
9584   60                   RTS
9585   88                   DEY
9586   2D 33 46             AND $4633
9589   68                   PLA
958A   F4                   ???                ;11110100
958B   00                   BRK
958C   A9 D2                LDA #$D2
958E   8D 06 A9             STA $A906
9591   D0 14                BNE L95A7
9593   20 0A 74   L9593     JSR $740A
9596   FD 26 70             SBC $7026,X
9599   9A                   TXS
959A   60                   RTS
959B   88                   DEY
959C   2D 33 46             AND $4633
959F   68                   PLA
95A0   F4                   ???                ;11110100
95A1   00                   BRK
95A2   A9 D2                LDA #$D2
95A4   8D 0C A9             STA $A90C
95A7   20 0A 74   L95A7     JSR $740A
95AA   FB                   ???                ;11111011
95AB   51 30                EOR ($30),Y
95AD   A6 60                LDX $60
95AF   88                   DEY
95B0   2D 33 46             AND $4633
95B3   68                   PLA
95B4   F7                   ???                ;11110111
95B5   ED 99 86             SBC $8699
95B8   99 82 20             STA $2082,Y
95BB   B4 CD                LDY $CD,X
95BD   19 A3 DF             ORA $DFA3,Y
95C0   D4                   ???                ;11010100
95C1   2A                   ROL A
95C2   98                   TYA
95C3   33                   ???                ;00110011 '3'
95C4   49 83                EOR #$83
95C6   01 46                ORA ($46,X)
95C8   77                   ???                ;01110111 'w'
95C9   EF                   ???                ;11101111
95CA   E3                   ???                ;11100011
95CB   30 AA                BMI L9577
95CD   60                   RTS
95CE   CD 26 0A             CMP $0A26
95D1   04                   ???                ;00000100
95D2   D3                   ???                ;11010011
95D3   74                   ???                ;01110100 't'
95D4   00                   BRK
95D5   20 5E 6F             JSR $6F5E
95D8   B0 14                BCS L95EE
95DA   20 0A 74             JSR $740A
95DD   FB                   ???                ;11111011
95DE   8E 99 A2             STX $A299
95E1   1B                   ???                ;00011011
95E2   29 85                AND #$85
95E4   34                   ???                ;00110100 '4'
95E5   5C                   ???                ;01011100 '\'
95E6   69 48                ADC #$48
95E8   00                   BRK
95E9   A9 C5                LDA #$C5
95EB   8D 09 A9             STA $A909
95EE   20 0F 8B   L95EE     JSR $8B0F
95F1   5A                   ???                ;01011010 'Z'
95F2   20 C1 96             JSR $96C1
95F5   AF                   ???                ;10101111
95F6   D2                   ???                ;11010010
95F7   A1 AD                LDA ($AD,X)
95F9   C5 7D                CMP $7D
95FB   A9 D2                LDA #$D2
95FD   04                   ???                ;00000100
95FE   B3                   ???                ;10110011
95FF   C3                   ???                ;11000011
9600   60                   RTS
9601   AA                   TAX
9602   C4 D1                CPY $D1
9604   AE D3 FA             LDX $FAD3
9607   AD CC AE             LDA $AECC
960A   A9 31                LDA #$31
960C   37                   ???                ;00110111 '7'
960D   58                   CLI
960E   A9 D6                LDA #$D6
9610   74                   ???                ;01110100 't'
9611   A9 93                LDA #$93
9613   71 A9                ADC ($A9),Y
9615   00                   BRK
9616   28                   PLP
9617   A9 48                LDA #$48
9619   A2 00                LDX #$00
961B   AD 4E 03             LDA $034E
961E   29 01                AND #$01
9620   F0 02                BEQ $9624
                            .END

;auto-generated symbols and labels
 L9264      $9264
 L9267      $9267
 L9283      $9283
 L9332      $9332
 L9348      $9348
 L9389      $9389
 L9400      $9400
 L9416      $9416
 L9448      $9448
 L9472      $9472
 L9479      $9479
 L9480      $9480
 L9487      $9487
 L9504      $9504
 L9577      $9577
 L9578      $9578
 L9593      $9593
 L92FD      $92FD
 L92CD      $92CD
 L930D      $930D
 L93A7      $93A7
 L932C      $932C
 L934E      $934E
 L936B      $936B
 L937F      $937F
 L93AF      $93AF
 L937B      $937B
 L936E      $936E
 L93EC      $93EC
 L947F      $947F
 L943E      $943E
 L94A9      $94A9
 L946B      $946B
 L948E      $948E
 L94A2      $94A2
 L94EA      $94EA
 L94C3      $94C3
 L94CD      $94CD
 L94B6      $94B6
 L94F7      $94F7
 L92C7      $92C7
 L92F6      $92F6
 L94FB      $94FB
 L950C      $950C
 L95A7      $95A7
 L95EE      $95EE
